
vga_accel_emb.elf:     file format elf32-littleriscv


Disassembly of section .vectors:

00000000 <_stack_start-0x108000>:
   0:	00000013          	nop
   4:	00000013          	nop
   8:	00000013          	nop
   c:	00000013          	nop
  10:	00000013          	nop
  14:	00000013          	nop
  18:	00000013          	nop
  1c:	00000013          	nop
  20:	00000013          	nop
  24:	00000013          	nop
  28:	00000013          	nop
  2c:	00000013          	nop
  30:	00000013          	nop
  34:	00000013          	nop
  38:	00000013          	nop
  3c:	00000013          	nop
  40:	00000013          	nop
  44:	00000013          	nop
  48:	00000013          	nop
  4c:	00000013          	nop
  50:	00000013          	nop
  54:	00000013          	nop
  58:	00000013          	nop
  5c:	0c20006f          	j	11e <ISR_I2C_ASM>
  60:	0d20006f          	j	132 <ISR_UART_ASM>
  64:	0e20006f          	j	146 <ISR_GPIO_ASM>
  68:	0f20006f          	j	15a <ISR_SPIM0_ASM>
  6c:	1020006f          	j	16e <ISR_SPIM1_ASM>
  70:	1260006f          	j	196 <ISR_TA_OVF_ASM>
  74:	10e0006f          	j	182 <ISR_TA_CMP_ASM>
  78:	1460006f          	j	1be <ISR_TB_OVF_ASM>
  7c:	12e0006f          	j	1aa <ISR_TB_CMP_ASM>
  80:	00c0006f          	j	8c <_stext>
  84:	14e0006f          	j	1d2 <illegal_insn_handler>
  88:	15e0006f          	j	1e6 <ecall_insn_handler>

Disassembly of section .text:

0000008c <_stext>:
      8c:	30501073          	csrw	mtvec,zero
      90:	00000093          	li	ra,0
      94:	8106                	mv	sp,ra
      96:	8186                	mv	gp,ra
      98:	8206                	mv	tp,ra
      9a:	8286                	mv	t0,ra
      9c:	8306                	mv	t1,ra
      9e:	8386                	mv	t2,ra
      a0:	8406                	mv	s0,ra
      a2:	8486                	mv	s1,ra
      a4:	8506                	mv	a0,ra
      a6:	8586                	mv	a1,ra
      a8:	8606                	mv	a2,ra
      aa:	8686                	mv	a3,ra
      ac:	8706                	mv	a4,ra
      ae:	8786                	mv	a5,ra
      b0:	8806                	mv	a6,ra
      b2:	8886                	mv	a7,ra
      b4:	8906                	mv	s2,ra
      b6:	8986                	mv	s3,ra
      b8:	8a06                	mv	s4,ra
      ba:	8a86                	mv	s5,ra
      bc:	8b06                	mv	s6,ra
      be:	8b86                	mv	s7,ra
      c0:	8c06                	mv	s8,ra
      c2:	8c86                	mv	s9,ra
      c4:	8d06                	mv	s10,ra
      c6:	8d86                	mv	s11,ra
      c8:	8e06                	mv	t3,ra
      ca:	8e86                	mv	t4,ra
      cc:	8f06                	mv	t5,ra
      ce:	8f86                	mv	t6,ra
      d0:	00108117          	auipc	sp,0x108
      d4:	f3010113          	addi	sp,sp,-208 # 108000 <_stack_start>

000000d8 <_start>:
      d8:	00102d17          	auipc	s10,0x102
      dc:	ca4d0d13          	addi	s10,s10,-860 # 101d7c <cur_x>
      e0:	00102d97          	auipc	s11,0x102
      e4:	10cd8d93          	addi	s11,s11,268 # 1021ec <_bss_end>
      e8:	01bd5763          	bge	s10,s11,f6 <zero_loop_end>

000000ec <zero_loop>:
      ec:	000d2023          	sw	zero,0(s10)
      f0:	0d11                	addi	s10,s10,4
      f2:	ffaddde3          	bge	s11,s10,ec <zero_loop>

000000f6 <zero_loop_end>:
      f6:	666070ef          	jal	ra,775c <__libc_init_array>

000000fa <main_entry>:
      fa:	00000513          	li	a0,0
      fe:	00100593          	li	a1,1
     102:	41c010ef          	jal	ra,151e <uart_set_cfg>
     106:	00000513          	li	a0,0
     10a:	00000593          	li	a1,0
     10e:	0e9000ef          	jal	ra,9f6 <main>
     112:	842a                	mv	s0,a0
     114:	562010ef          	jal	ra,1676 <uart_wait_tx_done>
     118:	8522                	mv	a0,s0
     11a:	57c010ef          	jal	ra,1696 <exit>

0000011e <ISR_I2C_ASM>:
     11e:	711d                	addi	sp,sp,-96
     120:	ce86                	sw	ra,92(sp)
     122:	0d8000ef          	jal	ra,1fa <store_regs>
     126:	00000097          	auipc	ra,0x0
     12a:	11e08093          	addi	ra,ra,286 # 244 <end_except>
     12e:	7070106f          	j	2034 <ISR_I2C>

00000132 <ISR_UART_ASM>:
     132:	711d                	addi	sp,sp,-96
     134:	ce86                	sw	ra,92(sp)
     136:	0c4000ef          	jal	ra,1fa <store_regs>
     13a:	00000097          	auipc	ra,0x0
     13e:	10a08093          	addi	ra,ra,266 # 244 <end_except>
     142:	6fb0106f          	j	203c <ISR_UART>

00000146 <ISR_GPIO_ASM>:
     146:	711d                	addi	sp,sp,-96
     148:	ce86                	sw	ra,92(sp)
     14a:	0b0000ef          	jal	ra,1fa <store_regs>
     14e:	00000097          	auipc	ra,0x0
     152:	0f608093          	addi	ra,ra,246 # 244 <end_except>
     156:	6ef0106f          	j	2044 <ISR_GPIO>

0000015a <ISR_SPIM0_ASM>:
     15a:	711d                	addi	sp,sp,-96
     15c:	ce86                	sw	ra,92(sp)
     15e:	09c000ef          	jal	ra,1fa <store_regs>
     162:	00000097          	auipc	ra,0x0
     166:	0e208093          	addi	ra,ra,226 # 244 <end_except>
     16a:	6e30106f          	j	204c <ISR_SPIM0>

0000016e <ISR_SPIM1_ASM>:
     16e:	711d                	addi	sp,sp,-96
     170:	ce86                	sw	ra,92(sp)
     172:	088000ef          	jal	ra,1fa <store_regs>
     176:	00000097          	auipc	ra,0x0
     17a:	0ce08093          	addi	ra,ra,206 # 244 <end_except>
     17e:	6d70106f          	j	2054 <ISR_SPIM1>

00000182 <ISR_TA_CMP_ASM>:
     182:	711d                	addi	sp,sp,-96
     184:	ce86                	sw	ra,92(sp)
     186:	074000ef          	jal	ra,1fa <store_regs>
     18a:	00000097          	auipc	ra,0x0
     18e:	0ba08093          	addi	ra,ra,186 # 244 <end_except>
     192:	6d30106f          	j	2064 <ISR_TA_CMP>

00000196 <ISR_TA_OVF_ASM>:
     196:	711d                	addi	sp,sp,-96
     198:	ce86                	sw	ra,92(sp)
     19a:	060000ef          	jal	ra,1fa <store_regs>
     19e:	00000097          	auipc	ra,0x0
     1a2:	0a608093          	addi	ra,ra,166 # 244 <end_except>
     1a6:	6b70106f          	j	205c <ISR_TA_OVF>

000001aa <ISR_TB_CMP_ASM>:
     1aa:	711d                	addi	sp,sp,-96
     1ac:	ce86                	sw	ra,92(sp)
     1ae:	04c000ef          	jal	ra,1fa <store_regs>
     1b2:	00000097          	auipc	ra,0x0
     1b6:	09208093          	addi	ra,ra,146 # 244 <end_except>
     1ba:	6bb0106f          	j	2074 <ISR_TB_CMP>

000001be <ISR_TB_OVF_ASM>:
     1be:	711d                	addi	sp,sp,-96
     1c0:	ce86                	sw	ra,92(sp)
     1c2:	038000ef          	jal	ra,1fa <store_regs>
     1c6:	00000097          	auipc	ra,0x0
     1ca:	07e08093          	addi	ra,ra,126 # 244 <end_except>
     1ce:	69f0106f          	j	206c <ISR_TB_OVF>

000001d2 <illegal_insn_handler>:
     1d2:	711d                	addi	sp,sp,-96
     1d4:	ce86                	sw	ra,92(sp)
     1d6:	024000ef          	jal	ra,1fa <store_regs>
     1da:	00000097          	auipc	ra,0x0
     1de:	06a08093          	addi	ra,ra,106 # 244 <end_except>
     1e2:	6a30106f          	j	2084 <illegal_insn_handler_c>

000001e6 <ecall_insn_handler>:
     1e6:	711d                	addi	sp,sp,-96
     1e8:	ce86                	sw	ra,92(sp)
     1ea:	010000ef          	jal	ra,1fa <store_regs>
     1ee:	00000097          	auipc	ra,0x0
     1f2:	05608093          	addi	ra,ra,86 # 244 <end_except>
     1f6:	6970106f          	j	208c <ecall_insn_handler_c>

000001fa <store_regs>:
     1fa:	c00e                	sw	gp,0(sp)
     1fc:	c212                	sw	tp,4(sp)
     1fe:	c416                	sw	t0,8(sp)
     200:	c61a                	sw	t1,12(sp)
     202:	c81e                	sw	t2,16(sp)
     204:	ca2a                	sw	a0,20(sp)
     206:	cc2e                	sw	a1,24(sp)
     208:	ce32                	sw	a2,28(sp)
     20a:	d036                	sw	a3,32(sp)
     20c:	d23a                	sw	a4,36(sp)
     20e:	d43e                	sw	a5,40(sp)
     210:	d642                	sw	a6,44(sp)
     212:	d846                	sw	a7,48(sp)
     214:	da72                	sw	t3,52(sp)
     216:	dc76                	sw	t4,56(sp)
     218:	de7a                	sw	t5,60(sp)
     21a:	c0fe                	sw	t6,64(sp)
     21c:	7b002e73          	csrr	t3,dcsr
     220:	7b102ef3          	csrr	t4,dpc
     224:	7b202f73          	csrr	t5,dscratch
     228:	c2f2                	sw	t3,68(sp)
     22a:	c4f6                	sw	t4,72(sp)
     22c:	c6fa                	sw	t5,76(sp)
     22e:	7b402e73          	csrr	t3,0x7b4
     232:	7b502ef3          	csrr	t4,0x7b5
     236:	7b602f73          	csrr	t5,0x7b6
     23a:	c8f2                	sw	t3,80(sp)
     23c:	caf6                	sw	t4,84(sp)
     23e:	ccfa                	sw	t5,88(sp)
     240:	00008067          	ret

00000244 <end_except>:
     244:	4e46                	lw	t3,80(sp)
     246:	4ed6                	lw	t4,84(sp)
     248:	4f66                	lw	t5,88(sp)
     24a:	7b4e1073          	csrw	0x7b4,t3
     24e:	7b5e9073          	csrw	0x7b5,t4
     252:	7b6f1073          	csrw	0x7b6,t5
     256:	4e16                	lw	t3,68(sp)
     258:	4ea6                	lw	t4,72(sp)
     25a:	4f36                	lw	t5,76(sp)
     25c:	7b0e1073          	csrw	dcsr,t3
     260:	7b1e9073          	csrw	dpc,t4
     264:	7b2f1073          	csrw	dscratch,t5
     268:	4182                	lw	gp,0(sp)
     26a:	4212                	lw	tp,4(sp)
     26c:	42a2                	lw	t0,8(sp)
     26e:	4332                	lw	t1,12(sp)
     270:	43c2                	lw	t2,16(sp)
     272:	4552                	lw	a0,20(sp)
     274:	45e2                	lw	a1,24(sp)
     276:	4672                	lw	a2,28(sp)
     278:	5682                	lw	a3,32(sp)
     27a:	5712                	lw	a4,36(sp)
     27c:	57a2                	lw	a5,40(sp)
     27e:	5832                	lw	a6,44(sp)
     280:	58c2                	lw	a7,48(sp)
     282:	5e52                	lw	t3,52(sp)
     284:	5ee2                	lw	t4,56(sp)
     286:	5f72                	lw	t5,60(sp)
     288:	4f86                	lw	t6,64(sp)
     28a:	40f6                	lw	ra,92(sp)
     28c:	6125                	addi	sp,sp,96
     28e:	30200073          	mret

00000292 <_fini>:
     292:	8082                	ret

00000294 <int_disable>:
     294:	1101                	addi	sp,sp,-32
     296:	ce22                	sw	s0,28(sp)
     298:	1000                	addi	s0,sp,32
     29a:	300027f3          	csrr	a5,mstatus
     29e:	fef42623          	sw	a5,-20(s0)
     2a2:	fec42783          	lw	a5,-20(s0)
     2a6:	9bdd                	andi	a5,a5,-9
     2a8:	fef42623          	sw	a5,-20(s0)
     2ac:	fec42783          	lw	a5,-20(s0)
     2b0:	30079073          	csrw	mstatus,a5
     2b4:	4781                	li	a5,0
     2b6:	30079073          	csrw	mstatus,a5
     2ba:	0001                	nop
     2bc:	4472                	lw	s0,28(sp)
     2be:	6105                	addi	sp,sp,32
     2c0:	8082                	ret

000002c2 <vga_init>:
     2c2:	1141                	addi	sp,sp,-16
     2c4:	c622                	sw	s0,12(sp)
     2c6:	0800                	addi	s0,sp,16
     2c8:	1a1077b7          	lui	a5,0x1a107
     2cc:	0791                	addi	a5,a5,4
     2ce:	4398                	lw	a4,0(a5)
     2d0:	1a1077b7          	lui	a5,0x1a107
     2d4:	0791                	addi	a5,a5,4
     2d6:	20076713          	ori	a4,a4,512
     2da:	c398                	sw	a4,0(a5)
     2dc:	0001                	nop
     2de:	4432                	lw	s0,12(sp)
     2e0:	0141                	addi	sp,sp,16
     2e2:	8082                	ret

000002e4 <draw_pixel>:
     2e4:	7179                	addi	sp,sp,-48
     2e6:	d622                	sw	s0,44(sp)
     2e8:	1800                	addi	s0,sp,48
     2ea:	fca42e23          	sw	a0,-36(s0)
     2ee:	fcb42c23          	sw	a1,-40(s0)
     2f2:	87b2                	mv	a5,a2
     2f4:	fcf40ba3          	sb	a5,-41(s0)
     2f8:	1a2007b7          	lui	a5,0x1a200
     2fc:	fef42623          	sw	a5,-20(s0)
     300:	fd842783          	lw	a5,-40(s0)
     304:	00279713          	slli	a4,a5,0x2
     308:	fd842783          	lw	a5,-40(s0)
     30c:	97ba                	add	a5,a5,a4
     30e:	00579713          	slli	a4,a5,0x5
     312:	fdc42783          	lw	a5,-36(s0)
     316:	8389                	srli	a5,a5,0x2
     318:	97ba                	add	a5,a5,a4
     31a:	fef42423          	sw	a5,-24(s0)
     31e:	fdc42783          	lw	a5,-36(s0)
     322:	078e                	slli	a5,a5,0x3
     324:	8be1                	andi	a5,a5,24
     326:	fef42223          	sw	a5,-28(s0)
     32a:	fe842783          	lw	a5,-24(s0)
     32e:	078a                	slli	a5,a5,0x2
     330:	fec42703          	lw	a4,-20(s0)
     334:	97ba                	add	a5,a5,a4
     336:	439c                	lw	a5,0(a5)
     338:	fef42023          	sw	a5,-32(s0)
     33c:	fe442783          	lw	a5,-28(s0)
     340:	0ff00713          	li	a4,255
     344:	00f717b3          	sll	a5,a4,a5
     348:	fff7c793          	not	a5,a5
     34c:	873e                	mv	a4,a5
     34e:	fe042783          	lw	a5,-32(s0)
     352:	8ff9                	and	a5,a5,a4
     354:	fef42023          	sw	a5,-32(s0)
     358:	fd744703          	lbu	a4,-41(s0)
     35c:	fe442783          	lw	a5,-28(s0)
     360:	00f717b3          	sll	a5,a4,a5
     364:	fe042703          	lw	a4,-32(s0)
     368:	8fd9                	or	a5,a5,a4
     36a:	fef42023          	sw	a5,-32(s0)
     36e:	fe842783          	lw	a5,-24(s0)
     372:	078a                	slli	a5,a5,0x2
     374:	fec42703          	lw	a4,-20(s0)
     378:	97ba                	add	a5,a5,a4
     37a:	fe042703          	lw	a4,-32(s0)
     37e:	c398                	sw	a4,0(a5)
     380:	0001                	nop
     382:	5432                	lw	s0,44(sp)
     384:	6145                	addi	sp,sp,48
     386:	8082                	ret

00000388 <rad2deg>:
     388:	7179                	addi	sp,sp,-48
     38a:	d606                	sw	ra,44(sp)
     38c:	d422                	sw	s0,40(sp)
     38e:	1800                	addi	s0,sp,48
     390:	fca42e23          	sw	a0,-36(s0)
     394:	fdc42583          	lw	a1,-36(s0)
     398:	fdc42503          	lw	a0,-36(s0)
     39c:	3080a0ef          	jal	ra,a6a4 <__unordsf2>
     3a0:	87aa                	mv	a5,a0
     3a2:	c791                	beqz	a5,3ae <rad2deg+0x26>
     3a4:	001007b7          	lui	a5,0x100
     3a8:	1947a783          	lw	a5,404(a5) # 100194 <__init_array_end+0x194>
     3ac:	a841                	j	43c <rad2deg+0xb4>
     3ae:	fdc42503          	lw	a0,-36(s0)
     3b2:	5f20a0ef          	jal	ra,a9a4 <__extendsfdf2>
     3b6:	872a                	mv	a4,a0
     3b8:	87ae                	mv	a5,a1
     3ba:	001006b7          	lui	a3,0x100
     3be:	1986a603          	lw	a2,408(a3) # 100198 <__init_array_end+0x198>
     3c2:	19c6a683          	lw	a3,412(a3)
     3c6:	853a                	mv	a0,a4
     3c8:	85be                	mv	a1,a5
     3ca:	4af070ef          	jal	ra,8078 <__divdf3>
     3ce:	872a                	mv	a4,a0
     3d0:	87ae                	mv	a5,a1
     3d2:	853a                	mv	a0,a4
     3d4:	85be                	mv	a1,a5
     3d6:	001007b7          	lui	a5,0x100
     3da:	1a07a603          	lw	a2,416(a5) # 1001a0 <__init_array_end+0x1a0>
     3de:	1a47a683          	lw	a3,420(a5)
     3e2:	45a080ef          	jal	ra,883c <__muldf3>
     3e6:	872a                	mv	a4,a0
     3e8:	87ae                	mv	a5,a1
     3ea:	853a                	mv	a0,a4
     3ec:	85be                	mv	a1,a5
     3ee:	6920a0ef          	jal	ra,aa80 <__truncdfsf2>
     3f2:	87aa                	mv	a5,a0
     3f4:	fef42623          	sw	a5,-20(s0)
     3f8:	001007b7          	lui	a5,0x100
     3fc:	1a87a583          	lw	a1,424(a5) # 1001a8 <__init_array_end+0x1a8>
     400:	fec42503          	lw	a0,-20(s0)
     404:	27d090ef          	jal	ra,9e80 <__lesf2>
     408:	87aa                	mv	a5,a0
     40a:	0007d763          	bgez	a5,418 <rad2deg+0x90>
     40e:	001007b7          	lui	a5,0x100
     412:	1a87a783          	lw	a5,424(a5) # 1001a8 <__init_array_end+0x1a8>
     416:	a01d                	j	43c <rad2deg+0xb4>
     418:	001007b7          	lui	a5,0x100
     41c:	1ac7a583          	lw	a1,428(a5) # 1001ac <__init_array_end+0x1ac>
     420:	fec42503          	lw	a0,-20(s0)
     424:	1a9090ef          	jal	ra,9dcc <__gesf2>
     428:	87aa                	mv	a5,a0
     42a:	00f05763          	blez	a5,438 <rad2deg+0xb0>
     42e:	001007b7          	lui	a5,0x100
     432:	1ac7a783          	lw	a5,428(a5) # 1001ac <__init_array_end+0x1ac>
     436:	a019                	j	43c <rad2deg+0xb4>
     438:	fec42783          	lw	a5,-20(s0)
     43c:	853e                	mv	a0,a5
     43e:	50b2                	lw	ra,44(sp)
     440:	5422                	lw	s0,40(sp)
     442:	6145                	addi	sp,sp,48
     444:	8082                	ret

00000446 <arccos>:
     446:	7179                	addi	sp,sp,-48
     448:	d606                	sw	ra,44(sp)
     44a:	d422                	sw	s0,40(sp)
     44c:	d24a                	sw	s2,36(sp)
     44e:	d04e                	sw	s3,32(sp)
     450:	1800                	addi	s0,sp,48
     452:	fca42e23          	sw	a0,-36(s0)
     456:	00000593          	li	a1,0
     45a:	fdc42503          	lw	a0,-36(s0)
     45e:	223090ef          	jal	ra,9e80 <__lesf2>
     462:	87aa                	mv	a5,a0
     464:	0007d763          	bgez	a5,472 <arccos+0x2c>
     468:	001007b7          	lui	a5,0x100
     46c:	1b07a783          	lw	a5,432(a5) # 1001b0 <__init_array_end+0x1b0>
     470:	a019                	j	476 <arccos+0x30>
     472:	00000793          	li	a5,0
     476:	fef42623          	sw	a5,-20(s0)
     47a:	fdc42703          	lw	a4,-36(s0)
     47e:	800007b7          	lui	a5,0x80000
     482:	fff7c793          	not	a5,a5
     486:	8ff9                	and	a5,a5,a4
     488:	fcf42e23          	sw	a5,-36(s0)
     48c:	001007b7          	lui	a5,0x100
     490:	1b47a783          	lw	a5,436(a5) # 1001b4 <__init_array_end+0x1b4>
     494:	fef42423          	sw	a5,-24(s0)
     498:	fdc42583          	lw	a1,-36(s0)
     49c:	fe842503          	lw	a0,-24(s0)
     4a0:	295090ef          	jal	ra,9f34 <__mulsf3>
     4a4:	87aa                	mv	a5,a0
     4a6:	fef42423          	sw	a5,-24(s0)
     4aa:	fe842503          	lw	a0,-24(s0)
     4ae:	4f60a0ef          	jal	ra,a9a4 <__extendsfdf2>
     4b2:	872a                	mv	a4,a0
     4b4:	87ae                	mv	a5,a1
     4b6:	001006b7          	lui	a3,0x100
     4ba:	1b86a603          	lw	a2,440(a3) # 1001b8 <__init_array_end+0x1b8>
     4be:	1bc6a683          	lw	a3,444(a3)
     4c2:	853a                	mv	a0,a4
     4c4:	85be                	mv	a1,a5
     4c6:	3da070ef          	jal	ra,78a0 <__adddf3>
     4ca:	872a                	mv	a4,a0
     4cc:	87ae                	mv	a5,a1
     4ce:	853a                	mv	a0,a4
     4d0:	85be                	mv	a1,a5
     4d2:	5ae0a0ef          	jal	ra,aa80 <__truncdfsf2>
     4d6:	87aa                	mv	a5,a0
     4d8:	fef42423          	sw	a5,-24(s0)
     4dc:	fdc42583          	lw	a1,-36(s0)
     4e0:	fe842503          	lw	a0,-24(s0)
     4e4:	251090ef          	jal	ra,9f34 <__mulsf3>
     4e8:	87aa                	mv	a5,a0
     4ea:	fef42423          	sw	a5,-24(s0)
     4ee:	fe842503          	lw	a0,-24(s0)
     4f2:	4b20a0ef          	jal	ra,a9a4 <__extendsfdf2>
     4f6:	872a                	mv	a4,a0
     4f8:	87ae                	mv	a5,a1
     4fa:	001006b7          	lui	a3,0x100
     4fe:	1c06a603          	lw	a2,448(a3) # 1001c0 <__init_array_end+0x1c0>
     502:	1c46a683          	lw	a3,452(a3)
     506:	853a                	mv	a0,a4
     508:	85be                	mv	a1,a5
     50a:	0fb080ef          	jal	ra,8e04 <__subdf3>
     50e:	872a                	mv	a4,a0
     510:	87ae                	mv	a5,a1
     512:	853a                	mv	a0,a4
     514:	85be                	mv	a1,a5
     516:	56a0a0ef          	jal	ra,aa80 <__truncdfsf2>
     51a:	87aa                	mv	a5,a0
     51c:	fef42423          	sw	a5,-24(s0)
     520:	fdc42583          	lw	a1,-36(s0)
     524:	fe842503          	lw	a0,-24(s0)
     528:	20d090ef          	jal	ra,9f34 <__mulsf3>
     52c:	87aa                	mv	a5,a0
     52e:	fef42423          	sw	a5,-24(s0)
     532:	fe842503          	lw	a0,-24(s0)
     536:	46e0a0ef          	jal	ra,a9a4 <__extendsfdf2>
     53a:	872a                	mv	a4,a0
     53c:	87ae                	mv	a5,a1
     53e:	001006b7          	lui	a3,0x100
     542:	1c86a603          	lw	a2,456(a3) # 1001c8 <__init_array_end+0x1c8>
     546:	1cc6a683          	lw	a3,460(a3)
     54a:	853a                	mv	a0,a4
     54c:	85be                	mv	a1,a5
     54e:	352070ef          	jal	ra,78a0 <__adddf3>
     552:	872a                	mv	a4,a0
     554:	87ae                	mv	a5,a1
     556:	853a                	mv	a0,a4
     558:	85be                	mv	a1,a5
     55a:	5260a0ef          	jal	ra,aa80 <__truncdfsf2>
     55e:	87aa                	mv	a5,a0
     560:	fef42423          	sw	a5,-24(s0)
     564:	fe842503          	lw	a0,-24(s0)
     568:	43c0a0ef          	jal	ra,a9a4 <__extendsfdf2>
     56c:	892a                	mv	s2,a0
     56e:	89ae                	mv	s3,a1
     570:	fdc42503          	lw	a0,-36(s0)
     574:	4300a0ef          	jal	ra,a9a4 <__extendsfdf2>
     578:	872a                	mv	a4,a0
     57a:	87ae                	mv	a5,a1
     57c:	001005b7          	lui	a1,0x100
     580:	863a                	mv	a2,a4
     582:	86be                	mv	a3,a5
     584:	1d05a503          	lw	a0,464(a1) # 1001d0 <__init_array_end+0x1d0>
     588:	1d45a583          	lw	a1,468(a1)
     58c:	079080ef          	jal	ra,8e04 <__subdf3>
     590:	872a                	mv	a4,a0
     592:	87ae                	mv	a5,a1
     594:	853a                	mv	a0,a4
     596:	85be                	mv	a1,a5
     598:	655060ef          	jal	ra,73ec <sqrt>
     59c:	872a                	mv	a4,a0
     59e:	87ae                	mv	a5,a1
     5a0:	863a                	mv	a2,a4
     5a2:	86be                	mv	a3,a5
     5a4:	854a                	mv	a0,s2
     5a6:	85ce                	mv	a1,s3
     5a8:	294080ef          	jal	ra,883c <__muldf3>
     5ac:	872a                	mv	a4,a0
     5ae:	87ae                	mv	a5,a1
     5b0:	853a                	mv	a0,a4
     5b2:	85be                	mv	a1,a5
     5b4:	4cc0a0ef          	jal	ra,aa80 <__truncdfsf2>
     5b8:	87aa                	mv	a5,a0
     5ba:	fef42423          	sw	a5,-24(s0)
     5be:	fec42783          	lw	a5,-20(s0)
     5c2:	85be                	mv	a1,a5
     5c4:	853e                	mv	a0,a5
     5c6:	076090ef          	jal	ra,963c <__addsf3>
     5ca:	87aa                	mv	a5,a0
     5cc:	fe842583          	lw	a1,-24(s0)
     5d0:	853e                	mv	a0,a5
     5d2:	163090ef          	jal	ra,9f34 <__mulsf3>
     5d6:	87aa                	mv	a5,a0
     5d8:	85be                	mv	a1,a5
     5da:	fe842503          	lw	a0,-24(s0)
     5de:	45b090ef          	jal	ra,a238 <__subsf3>
     5e2:	87aa                	mv	a5,a0
     5e4:	fef42423          	sw	a5,-24(s0)
     5e8:	fec42503          	lw	a0,-20(s0)
     5ec:	3b80a0ef          	jal	ra,a9a4 <__extendsfdf2>
     5f0:	872a                	mv	a4,a0
     5f2:	87ae                	mv	a5,a1
     5f4:	001006b7          	lui	a3,0x100
     5f8:	1d86a603          	lw	a2,472(a3) # 1001d8 <__init_array_end+0x1d8>
     5fc:	1dc6a683          	lw	a3,476(a3)
     600:	853a                	mv	a0,a4
     602:	85be                	mv	a1,a5
     604:	238080ef          	jal	ra,883c <__muldf3>
     608:	872a                	mv	a4,a0
     60a:	87ae                	mv	a5,a1
     60c:	893a                	mv	s2,a4
     60e:	89be                	mv	s3,a5
     610:	fe842503          	lw	a0,-24(s0)
     614:	3900a0ef          	jal	ra,a9a4 <__extendsfdf2>
     618:	872a                	mv	a4,a0
     61a:	87ae                	mv	a5,a1
     61c:	863a                	mv	a2,a4
     61e:	86be                	mv	a3,a5
     620:	854a                	mv	a0,s2
     622:	85ce                	mv	a1,s3
     624:	27c070ef          	jal	ra,78a0 <__adddf3>
     628:	872a                	mv	a4,a0
     62a:	87ae                	mv	a5,a1
     62c:	853a                	mv	a0,a4
     62e:	85be                	mv	a1,a5
     630:	4500a0ef          	jal	ra,aa80 <__truncdfsf2>
     634:	87aa                	mv	a5,a0
     636:	853e                	mv	a0,a5
     638:	50b2                	lw	ra,44(sp)
     63a:	5422                	lw	s0,40(sp)
     63c:	5912                	lw	s2,36(sp)
     63e:	5982                	lw	s3,32(sp)
     640:	6145                	addi	sp,sp,48
     642:	8082                	ret

00000644 <float2str>:
     644:	7179                	addi	sp,sp,-48
     646:	d606                	sw	ra,44(sp)
     648:	d422                	sw	s0,40(sp)
     64a:	1800                	addi	s0,sp,48
     64c:	fca42e23          	sw	a0,-36(s0)
     650:	fcb42c23          	sw	a1,-40(s0)
     654:	fdc42503          	lw	a0,-36(s0)
     658:	0900a0ef          	jal	ra,a6e8 <__fixsfsi>
     65c:	87aa                	mv	a5,a0
     65e:	fef42623          	sw	a5,-20(s0)
     662:	00000593          	li	a1,0
     666:	fdc42503          	lw	a0,-36(s0)
     66a:	017090ef          	jal	ra,9e80 <__lesf2>
     66e:	87aa                	mv	a5,a0
     670:	0007d963          	bgez	a5,682 <float2str+0x3e>
     674:	fdc42703          	lw	a4,-36(s0)
     678:	800007b7          	lui	a5,0x80000
     67c:	8fb9                	xor	a5,a5,a4
     67e:	fcf42e23          	sw	a5,-36(s0)
     682:	fec42503          	lw	a0,-20(s0)
     686:	13a0a0ef          	jal	ra,a7c0 <__floatsisf>
     68a:	87aa                	mv	a5,a0
     68c:	85be                	mv	a1,a5
     68e:	fdc42503          	lw	a0,-36(s0)
     692:	3a7090ef          	jal	ra,a238 <__subsf3>
     696:	87aa                	mv	a5,a0
     698:	873e                	mv	a4,a5
     69a:	001007b7          	lui	a5,0x100
     69e:	1e07a583          	lw	a1,480(a5) # 1001e0 <__init_array_end+0x1e0>
     6a2:	853a                	mv	a0,a4
     6a4:	091090ef          	jal	ra,9f34 <__mulsf3>
     6a8:	87aa                	mv	a5,a0
     6aa:	853e                	mv	a0,a5
     6ac:	03c0a0ef          	jal	ra,a6e8 <__fixsfsi>
     6b0:	87aa                	mv	a5,a0
     6b2:	fef42423          	sw	a5,-24(s0)
     6b6:	fe842683          	lw	a3,-24(s0)
     6ba:	fec42603          	lw	a2,-20(s0)
     6be:	001007b7          	lui	a5,0x100
     6c2:	00078593          	mv	a1,a5
     6c6:	fd842503          	lw	a0,-40(s0)
     6ca:	6be010ef          	jal	ra,1d88 <sprintf>
     6ce:	fd842783          	lw	a5,-40(s0)
     6d2:	853e                	mv	a0,a5
     6d4:	50b2                	lw	ra,44(sp)
     6d6:	5422                	lw	s0,40(sp)
     6d8:	6145                	addi	sp,sp,48
     6da:	8082                	ret

000006dc <hex2str>:
     6dc:	7139                	addi	sp,sp,-64
     6de:	de22                	sw	s0,60(sp)
     6e0:	0080                	addi	s0,sp,64
     6e2:	87aa                	mv	a5,a0
     6e4:	fcb42423          	sw	a1,-56(s0)
     6e8:	fcf41723          	sh	a5,-50(s0)
     6ec:	001007b7          	lui	a5,0x100
     6f0:	00c78793          	addi	a5,a5,12 # 10000c <__init_array_end+0xc>
     6f4:	438c                	lw	a1,0(a5)
     6f6:	43d0                	lw	a2,4(a5)
     6f8:	4794                	lw	a3,8(a5)
     6fa:	47d8                	lw	a4,12(a5)
     6fc:	fcb42e23          	sw	a1,-36(s0)
     700:	fec42023          	sw	a2,-32(s0)
     704:	fed42223          	sw	a3,-28(s0)
     708:	fee42423          	sw	a4,-24(s0)
     70c:	0107c783          	lbu	a5,16(a5)
     710:	fef40623          	sb	a5,-20(s0)
     714:	fce45783          	lhu	a5,-50(s0)
     718:	fef41723          	sh	a5,-18(s0)
     71c:	fee45783          	lhu	a5,-18(s0)
     720:	83b1                	srli	a5,a5,0xc
     722:	07c2                	slli	a5,a5,0x10
     724:	83c1                	srli	a5,a5,0x10
     726:	8bbd                	andi	a5,a5,15
     728:	ff040713          	addi	a4,s0,-16
     72c:	97ba                	add	a5,a5,a4
     72e:	fec7c703          	lbu	a4,-20(a5)
     732:	fc842783          	lw	a5,-56(s0)
     736:	00e78023          	sb	a4,0(a5)
     73a:	fee45783          	lhu	a5,-18(s0)
     73e:	83a1                	srli	a5,a5,0x8
     740:	07c2                	slli	a5,a5,0x10
     742:	83c1                	srli	a5,a5,0x10
     744:	00f7f713          	andi	a4,a5,15
     748:	fc842783          	lw	a5,-56(s0)
     74c:	0785                	addi	a5,a5,1
     74e:	ff040693          	addi	a3,s0,-16
     752:	9736                	add	a4,a4,a3
     754:	fec74703          	lbu	a4,-20(a4)
     758:	00e78023          	sb	a4,0(a5)
     75c:	fee45783          	lhu	a5,-18(s0)
     760:	8391                	srli	a5,a5,0x4
     762:	07c2                	slli	a5,a5,0x10
     764:	83c1                	srli	a5,a5,0x10
     766:	00f7f713          	andi	a4,a5,15
     76a:	fc842783          	lw	a5,-56(s0)
     76e:	0789                	addi	a5,a5,2
     770:	ff040693          	addi	a3,s0,-16
     774:	9736                	add	a4,a4,a3
     776:	fec74703          	lbu	a4,-20(a4)
     77a:	00e78023          	sb	a4,0(a5)
     77e:	fee45783          	lhu	a5,-18(s0)
     782:	00f7f713          	andi	a4,a5,15
     786:	fc842783          	lw	a5,-56(s0)
     78a:	078d                	addi	a5,a5,3
     78c:	ff040693          	addi	a3,s0,-16
     790:	9736                	add	a4,a4,a3
     792:	fec74703          	lbu	a4,-20(a4)
     796:	00e78023          	sb	a4,0(a5)
     79a:	fc842783          	lw	a5,-56(s0)
     79e:	0791                	addi	a5,a5,4
     7a0:	00078023          	sb	zero,0(a5)
     7a4:	fc842783          	lw	a5,-56(s0)
     7a8:	853e                	mv	a0,a5
     7aa:	5472                	lw	s0,60(sp)
     7ac:	6121                	addi	sp,sp,64
     7ae:	8082                	ret

000007b0 <accel_handler>:
     7b0:	7119                	addi	sp,sp,-128
     7b2:	de86                	sw	ra,124(sp)
     7b4:	dca2                	sw	s0,120(sp)
     7b6:	daa6                	sw	s1,116(sp)
     7b8:	0100                	addi	s0,sp,128
     7ba:	001007b7          	lui	a5,0x100
     7be:	1e47a783          	lw	a5,484(a5) # 1001e4 <__init_array_end+0x1e4>
     7c2:	fef42623          	sw	a5,-20(s0)
     7c6:	4529                	li	a0,10
     7c8:	686020ef          	jal	ra,2e4e <adxl362_interface_delay_ms>
     7cc:	f8c40713          	addi	a4,s0,-116
     7d0:	f9840793          	addi	a5,s0,-104
     7d4:	85ba                	mv	a1,a4
     7d6:	853e                	mv	a0,a5
     7d8:	1d8020ef          	jal	ra,29b0 <adxl362_basic_read>
     7dc:	f9841783          	lh	a5,-104(s0)
     7e0:	fef42423          	sw	a5,-24(s0)
     7e4:	f9a41783          	lh	a5,-102(s0)
     7e8:	fef42223          	sw	a5,-28(s0)
     7ec:	f9c41783          	lh	a5,-100(s0)
     7f0:	fef42023          	sw	a5,-32(s0)
     7f4:	f8c42783          	lw	a5,-116(s0)
     7f8:	fcf42e23          	sw	a5,-36(s0)
     7fc:	f9042783          	lw	a5,-112(s0)
     800:	fcf42c23          	sw	a5,-40(s0)
     804:	f9442783          	lw	a5,-108(s0)
     808:	fcf42a23          	sw	a5,-44(s0)
     80c:	fec42583          	lw	a1,-20(s0)
     810:	fdc42503          	lw	a0,-36(s0)
     814:	720090ef          	jal	ra,9f34 <__mulsf3>
     818:	87aa                	mv	a5,a0
     81a:	fcf42e23          	sw	a5,-36(s0)
     81e:	fec42583          	lw	a1,-20(s0)
     822:	fd842503          	lw	a0,-40(s0)
     826:	70e090ef          	jal	ra,9f34 <__mulsf3>
     82a:	87aa                	mv	a5,a0
     82c:	fcf42c23          	sw	a5,-40(s0)
     830:	fec42583          	lw	a1,-20(s0)
     834:	fd442503          	lw	a0,-44(s0)
     838:	6fc090ef          	jal	ra,9f34 <__mulsf3>
     83c:	87aa                	mv	a5,a0
     83e:	fcf42a23          	sw	a5,-44(s0)
     842:	fdc42583          	lw	a1,-36(s0)
     846:	fdc42503          	lw	a0,-36(s0)
     84a:	6ea090ef          	jal	ra,9f34 <__mulsf3>
     84e:	87aa                	mv	a5,a0
     850:	84be                	mv	s1,a5
     852:	fd842583          	lw	a1,-40(s0)
     856:	fd842503          	lw	a0,-40(s0)
     85a:	6da090ef          	jal	ra,9f34 <__mulsf3>
     85e:	87aa                	mv	a5,a0
     860:	85be                	mv	a1,a5
     862:	8526                	mv	a0,s1
     864:	5d9080ef          	jal	ra,963c <__addsf3>
     868:	87aa                	mv	a5,a0
     86a:	84be                	mv	s1,a5
     86c:	fd442583          	lw	a1,-44(s0)
     870:	fd442503          	lw	a0,-44(s0)
     874:	6c0090ef          	jal	ra,9f34 <__mulsf3>
     878:	87aa                	mv	a5,a0
     87a:	85be                	mv	a1,a5
     87c:	8526                	mv	a0,s1
     87e:	5bf080ef          	jal	ra,963c <__addsf3>
     882:	87aa                	mv	a5,a0
     884:	853e                	mv	a0,a5
     886:	11e0a0ef          	jal	ra,a9a4 <__extendsfdf2>
     88a:	872a                	mv	a4,a0
     88c:	87ae                	mv	a5,a1
     88e:	853a                	mv	a0,a4
     890:	85be                	mv	a1,a5
     892:	35b060ef          	jal	ra,73ec <sqrt>
     896:	872a                	mv	a4,a0
     898:	87ae                	mv	a5,a1
     89a:	853a                	mv	a0,a4
     89c:	85be                	mv	a1,a5
     89e:	1e20a0ef          	jal	ra,aa80 <__truncdfsf2>
     8a2:	87aa                	mv	a5,a0
     8a4:	fcf42823          	sw	a5,-48(s0)
     8a8:	fd042583          	lw	a1,-48(s0)
     8ac:	fdc42503          	lw	a0,-36(s0)
     8b0:	1e8090ef          	jal	ra,9a98 <__divsf3>
     8b4:	87aa                	mv	a5,a0
     8b6:	fcf42623          	sw	a5,-52(s0)
     8ba:	fd042583          	lw	a1,-48(s0)
     8be:	fd842503          	lw	a0,-40(s0)
     8c2:	1d6090ef          	jal	ra,9a98 <__divsf3>
     8c6:	87aa                	mv	a5,a0
     8c8:	fcf42423          	sw	a5,-56(s0)
     8cc:	fd042583          	lw	a1,-48(s0)
     8d0:	fd442503          	lw	a0,-44(s0)
     8d4:	1c4090ef          	jal	ra,9a98 <__divsf3>
     8d8:	87aa                	mv	a5,a0
     8da:	fcf42223          	sw	a5,-60(s0)
     8de:	fcc42503          	lw	a0,-52(s0)
     8e2:	3695                	jal	446 <arccos>
     8e4:	fca42023          	sw	a0,-64(s0)
     8e8:	fc842503          	lw	a0,-56(s0)
     8ec:	3ea9                	jal	446 <arccos>
     8ee:	faa42e23          	sw	a0,-68(s0)
     8f2:	fc442503          	lw	a0,-60(s0)
     8f6:	3e81                	jal	446 <arccos>
     8f8:	faa42c23          	sw	a0,-72(s0)
     8fc:	fc042503          	lw	a0,-64(s0)
     900:	3461                	jal	388 <rad2deg>
     902:	fca42023          	sw	a0,-64(s0)
     906:	fbc42503          	lw	a0,-68(s0)
     90a:	3cbd                	jal	388 <rad2deg>
     90c:	faa42e23          	sw	a0,-68(s0)
     910:	fb842503          	lw	a0,-72(s0)
     914:	3c95                	jal	388 <rad2deg>
     916:	faa42c23          	sw	a0,-72(s0)
     91a:	00000793          	li	a5,0
     91e:	faf42a23          	sw	a5,-76(s0)
     922:	faf42823          	sw	a5,-80(s0)
     926:	faf42623          	sw	a5,-84(s0)
     92a:	faf42423          	sw	a5,-88(s0)
     92e:	faf42223          	sw	a5,-92(s0)
     932:	faf42023          	sw	a5,-96(s0)
     936:	001027b7          	lui	a5,0x102
     93a:	fe842703          	lw	a4,-24(s0)
     93e:	1ae7a623          	sw	a4,428(a5) # 1021ac <accel_raw_x>
     942:	001027b7          	lui	a5,0x102
     946:	fe442703          	lw	a4,-28(s0)
     94a:	1ae7a823          	sw	a4,432(a5) # 1021b0 <accel_raw_y>
     94e:	001027b7          	lui	a5,0x102
     952:	fe042703          	lw	a4,-32(s0)
     956:	1ae7aa23          	sw	a4,436(a5) # 1021b4 <accel_raw_z>
     95a:	001027b7          	lui	a5,0x102
     95e:	fdc42703          	lw	a4,-36(s0)
     962:	1ae7ac23          	sw	a4,440(a5) # 1021b8 <accel_ax>
     966:	001027b7          	lui	a5,0x102
     96a:	fd842703          	lw	a4,-40(s0)
     96e:	1ae7ae23          	sw	a4,444(a5) # 1021bc <accel_ay>
     972:	001027b7          	lui	a5,0x102
     976:	fd442703          	lw	a4,-44(s0)
     97a:	1ce7a023          	sw	a4,448(a5) # 1021c0 <accel_az>
     97e:	001027b7          	lui	a5,0x102
     982:	fc042703          	lw	a4,-64(s0)
     986:	1ce7a223          	sw	a4,452(a5) # 1021c4 <accel_rot_x>
     98a:	001027b7          	lui	a5,0x102
     98e:	fbc42703          	lw	a4,-68(s0)
     992:	1ce7a423          	sw	a4,456(a5) # 1021c8 <accel_rot_y>
     996:	001027b7          	lui	a5,0x102
     99a:	fb842703          	lw	a4,-72(s0)
     99e:	1ce7a623          	sw	a4,460(a5) # 1021cc <accel_rot_z>
     9a2:	001027b7          	lui	a5,0x102
     9a6:	fb442703          	lw	a4,-76(s0)
     9aa:	1ce7a823          	sw	a4,464(a5) # 1021d0 <accel_vx>
     9ae:	001027b7          	lui	a5,0x102
     9b2:	fb042703          	lw	a4,-80(s0)
     9b6:	1ce7aa23          	sw	a4,468(a5) # 1021d4 <accel_vy>
     9ba:	001027b7          	lui	a5,0x102
     9be:	fac42703          	lw	a4,-84(s0)
     9c2:	1ce7ac23          	sw	a4,472(a5) # 1021d8 <accel_vz>
     9c6:	001027b7          	lui	a5,0x102
     9ca:	fa842703          	lw	a4,-88(s0)
     9ce:	1ce7ae23          	sw	a4,476(a5) # 1021dc <accel_x>
     9d2:	001027b7          	lui	a5,0x102
     9d6:	fa442703          	lw	a4,-92(s0)
     9da:	1ee7a023          	sw	a4,480(a5) # 1021e0 <accel_y>
     9de:	001027b7          	lui	a5,0x102
     9e2:	fa042703          	lw	a4,-96(s0)
     9e6:	1ee7a223          	sw	a4,484(a5) # 1021e4 <accel_z>
     9ea:	0001                	nop
     9ec:	50f6                	lw	ra,124(sp)
     9ee:	5466                	lw	s0,120(sp)
     9f0:	54d6                	lw	s1,116(sp)
     9f2:	6109                	addi	sp,sp,128
     9f4:	8082                	ret

000009f6 <main>:
     9f6:	710d                	addi	sp,sp,-352
     9f8:	14112e23          	sw	ra,348(sp)
     9fc:	14812c23          	sw	s0,344(sp)
     a00:	1280                	addi	s0,sp,352
     a02:	3849                	jal	294 <int_disable>
     a04:	45ed                	li	a1,27
     a06:	4501                	li	a0,0
     a08:	317000ef          	jal	ra,151e <uart_set_cfg>
     a0c:	385d                	jal	2c2 <vga_init>
     a0e:	2639                	jal	d1c <text_init>
     a10:	684010ef          	jal	ra,2094 <adxl362_basic_init>
     a14:	fe0407a3          	sb	zero,-17(s0)
     a18:	fe042423          	sw	zero,-24(s0)
     a1c:	a089                	j	a5e <main+0x68>
     a1e:	fe042223          	sw	zero,-28(s0)
     a22:	a01d                	j	a48 <main+0x52>
     a24:	fef44783          	lbu	a5,-17(s0)
     a28:	863e                	mv	a2,a5
     a2a:	fe842583          	lw	a1,-24(s0)
     a2e:	fe442503          	lw	a0,-28(s0)
     a32:	384d                	jal	2e4 <draw_pixel>
     a34:	fef44783          	lbu	a5,-17(s0)
     a38:	0785                	addi	a5,a5,1
     a3a:	fef407a3          	sb	a5,-17(s0)
     a3e:	fe442783          	lw	a5,-28(s0)
     a42:	0785                	addi	a5,a5,1
     a44:	fef42223          	sw	a5,-28(s0)
     a48:	fe442703          	lw	a4,-28(s0)
     a4c:	27f00793          	li	a5,639
     a50:	fce7fae3          	bgeu	a5,a4,a24 <main+0x2e>
     a54:	fe842783          	lw	a5,-24(s0)
     a58:	0785                	addi	a5,a5,1
     a5a:	fef42423          	sw	a5,-24(s0)
     a5e:	fe842703          	lw	a4,-24(s0)
     a62:	1df00793          	li	a5,479
     a66:	fae7fce3          	bgeu	a5,a4,a1e <main+0x28>
     a6a:	3399                	jal	7b0 <accel_handler>
     a6c:	001027b7          	lui	a5,0x102
     a70:	1ac7a783          	lw	a5,428(a5) # 1021ac <accel_raw_x>
     a74:	fef42023          	sw	a5,-32(s0)
     a78:	001027b7          	lui	a5,0x102
     a7c:	1b07a783          	lw	a5,432(a5) # 1021b0 <accel_raw_y>
     a80:	fcf42e23          	sw	a5,-36(s0)
     a84:	001027b7          	lui	a5,0x102
     a88:	1b47a783          	lw	a5,436(a5) # 1021b4 <accel_raw_z>
     a8c:	fcf42c23          	sw	a5,-40(s0)
     a90:	001027b7          	lui	a5,0x102
     a94:	1b87a783          	lw	a5,440(a5) # 1021b8 <accel_ax>
     a98:	fcf42a23          	sw	a5,-44(s0)
     a9c:	001027b7          	lui	a5,0x102
     aa0:	1bc7a783          	lw	a5,444(a5) # 1021bc <accel_ay>
     aa4:	fcf42823          	sw	a5,-48(s0)
     aa8:	001027b7          	lui	a5,0x102
     aac:	1c07a783          	lw	a5,448(a5) # 1021c0 <accel_az>
     ab0:	fcf42623          	sw	a5,-52(s0)
     ab4:	001027b7          	lui	a5,0x102
     ab8:	1c47a783          	lw	a5,452(a5) # 1021c4 <accel_rot_x>
     abc:	fcf42423          	sw	a5,-56(s0)
     ac0:	001027b7          	lui	a5,0x102
     ac4:	1c87a783          	lw	a5,456(a5) # 1021c8 <accel_rot_y>
     ac8:	fcf42223          	sw	a5,-60(s0)
     acc:	001027b7          	lui	a5,0x102
     ad0:	1cc7a783          	lw	a5,460(a5) # 1021cc <accel_rot_z>
     ad4:	fcf42023          	sw	a5,-64(s0)
     ad8:	001027b7          	lui	a5,0x102
     adc:	1d07a783          	lw	a5,464(a5) # 1021d0 <accel_vx>
     ae0:	faf42e23          	sw	a5,-68(s0)
     ae4:	001027b7          	lui	a5,0x102
     ae8:	1d47a783          	lw	a5,468(a5) # 1021d4 <accel_vy>
     aec:	faf42c23          	sw	a5,-72(s0)
     af0:	001027b7          	lui	a5,0x102
     af4:	1d87a783          	lw	a5,472(a5) # 1021d8 <accel_vz>
     af8:	faf42a23          	sw	a5,-76(s0)
     afc:	001027b7          	lui	a5,0x102
     b00:	1dc7a783          	lw	a5,476(a5) # 1021dc <accel_x>
     b04:	faf42823          	sw	a5,-80(s0)
     b08:	001027b7          	lui	a5,0x102
     b0c:	1e07a783          	lw	a5,480(a5) # 1021e0 <accel_y>
     b10:	faf42623          	sw	a5,-84(s0)
     b14:	001027b7          	lui	a5,0x102
     b18:	1e47a783          	lw	a5,484(a5) # 1021e4 <accel_z>
     b1c:	faf42423          	sw	a5,-88(s0)
     b20:	243d                	jal	d4e <text_set_pos_to_zero>
     b22:	03f00513          	li	a0,63
     b26:	2499                	jal	d6c <set_text_color>
     b28:	001007b7          	lui	a5,0x100
     b2c:	02078513          	addi	a0,a5,32 # 100020 <__init_array_end+0x20>
     b30:	2de010ef          	jal	ra,1e0e <puts>
     b34:	450d                	li	a0,3
     b36:	2c1d                	jal	d6c <set_text_color>
     b38:	fe042783          	lw	a5,-32(s0)
     b3c:	07c2                	slli	a5,a5,0x10
     b3e:	87c1                	srai	a5,a5,0x10
     b40:	ea840713          	addi	a4,s0,-344
     b44:	85ba                	mv	a1,a4
     b46:	853e                	mv	a0,a5
     b48:	3e51                	jal	6dc <hex2str>
     b4a:	87aa                	mv	a5,a0
     b4c:	85be                	mv	a1,a5
     b4e:	001007b7          	lui	a5,0x100
     b52:	05078513          	addi	a0,a5,80 # 100050 <__init_array_end+0x50>
     b56:	1e2010ef          	jal	ra,1d38 <printf>
     b5a:	fdc42783          	lw	a5,-36(s0)
     b5e:	07c2                	slli	a5,a5,0x10
     b60:	87c1                	srai	a5,a5,0x10
     b62:	ea840713          	addi	a4,s0,-344
     b66:	85ba                	mv	a1,a4
     b68:	853e                	mv	a0,a5
     b6a:	3e8d                	jal	6dc <hex2str>
     b6c:	87aa                	mv	a5,a0
     b6e:	85be                	mv	a1,a5
     b70:	001007b7          	lui	a5,0x100
     b74:	07078513          	addi	a0,a5,112 # 100070 <__init_array_end+0x70>
     b78:	1c0010ef          	jal	ra,1d38 <printf>
     b7c:	fd842783          	lw	a5,-40(s0)
     b80:	07c2                	slli	a5,a5,0x10
     b82:	87c1                	srai	a5,a5,0x10
     b84:	ea840713          	addi	a4,s0,-344
     b88:	85ba                	mv	a1,a4
     b8a:	853e                	mv	a0,a5
     b8c:	3e81                	jal	6dc <hex2str>
     b8e:	87aa                	mv	a5,a0
     b90:	85be                	mv	a1,a5
     b92:	001007b7          	lui	a5,0x100
     b96:	09078513          	addi	a0,a5,144 # 100090 <__init_array_end+0x90>
     b9a:	19e010ef          	jal	ra,1d38 <printf>
     b9e:	4531                	li	a0,12
     ba0:	22f1                	jal	d6c <set_text_color>
     ba2:	ea840793          	addi	a5,s0,-344
     ba6:	85be                	mv	a1,a5
     ba8:	fd442503          	lw	a0,-44(s0)
     bac:	3c61                	jal	644 <float2str>
     bae:	87aa                	mv	a5,a0
     bb0:	85be                	mv	a1,a5
     bb2:	001007b7          	lui	a5,0x100
     bb6:	0b078513          	addi	a0,a5,176 # 1000b0 <__init_array_end+0xb0>
     bba:	17e010ef          	jal	ra,1d38 <printf>
     bbe:	ea840793          	addi	a5,s0,-344
     bc2:	85be                	mv	a1,a5
     bc4:	fd042503          	lw	a0,-48(s0)
     bc8:	3cb5                	jal	644 <float2str>
     bca:	87aa                	mv	a5,a0
     bcc:	85be                	mv	a1,a5
     bce:	001007b7          	lui	a5,0x100
     bd2:	0dc78513          	addi	a0,a5,220 # 1000dc <__init_array_end+0xdc>
     bd6:	162010ef          	jal	ra,1d38 <printf>
     bda:	ea840793          	addi	a5,s0,-344
     bde:	85be                	mv	a1,a5
     be0:	fcc42503          	lw	a0,-52(s0)
     be4:	3485                	jal	644 <float2str>
     be6:	87aa                	mv	a5,a0
     be8:	85be                	mv	a1,a5
     bea:	001007b7          	lui	a5,0x100
     bee:	10878513          	addi	a0,a5,264 # 100108 <__init_array_end+0x108>
     bf2:	146010ef          	jal	ra,1d38 <printf>
     bf6:	03000513          	li	a0,48
     bfa:	2a8d                	jal	d6c <set_text_color>
     bfc:	ea840793          	addi	a5,s0,-344
     c00:	85be                	mv	a1,a5
     c02:	fc842503          	lw	a0,-56(s0)
     c06:	3c3d                	jal	644 <float2str>
     c08:	87aa                	mv	a5,a0
     c0a:	85be                	mv	a1,a5
     c0c:	001007b7          	lui	a5,0x100
     c10:	13478513          	addi	a0,a5,308 # 100134 <__init_array_end+0x134>
     c14:	124010ef          	jal	ra,1d38 <printf>
     c18:	ea840793          	addi	a5,s0,-344
     c1c:	85be                	mv	a1,a5
     c1e:	fc442503          	lw	a0,-60(s0)
     c22:	340d                	jal	644 <float2str>
     c24:	87aa                	mv	a5,a0
     c26:	85be                	mv	a1,a5
     c28:	001007b7          	lui	a5,0x100
     c2c:	15478513          	addi	a0,a5,340 # 100154 <__init_array_end+0x154>
     c30:	108010ef          	jal	ra,1d38 <printf>
     c34:	ea840793          	addi	a5,s0,-344
     c38:	85be                	mv	a1,a5
     c3a:	fc042503          	lw	a0,-64(s0)
     c3e:	3419                	jal	644 <float2str>
     c40:	87aa                	mv	a5,a0
     c42:	85be                	mv	a1,a5
     c44:	001007b7          	lui	a5,0x100
     c48:	17478513          	addi	a0,a5,372 # 100174 <__init_array_end+0x174>
     c4c:	0ec010ef          	jal	ra,1d38 <printf>
     c50:	bd29                	j	a6a <main+0x74>

00000c52 <putchar>:
     c52:	1101                	addi	sp,sp,-32
     c54:	ce06                	sw	ra,28(sp)
     c56:	cc22                	sw	s0,24(sp)
     c58:	1000                	addi	s0,sp,32
     c5a:	fea42623          	sw	a0,-20(s0)
     c5e:	fec42783          	lw	a5,-20(s0)
     c62:	0ff7f793          	andi	a5,a5,255
     c66:	853e                	mv	a0,a5
     c68:	2291                	jal	dac <text_putchar>
     c6a:	fec42783          	lw	a5,-20(s0)
     c6e:	853e                	mv	a0,a5
     c70:	40f2                	lw	ra,28(sp)
     c72:	4462                	lw	s0,24(sp)
     c74:	6105                	addi	sp,sp,32
     c76:	8082                	ret

00000c78 <draw_pixel>:
     c78:	7179                	addi	sp,sp,-48
     c7a:	d622                	sw	s0,44(sp)
     c7c:	1800                	addi	s0,sp,48
     c7e:	fca42e23          	sw	a0,-36(s0)
     c82:	fcb42c23          	sw	a1,-40(s0)
     c86:	87b2                	mv	a5,a2
     c88:	fcf40ba3          	sb	a5,-41(s0)
     c8c:	1a2007b7          	lui	a5,0x1a200
     c90:	fef42623          	sw	a5,-20(s0)
     c94:	fd842783          	lw	a5,-40(s0)
     c98:	00279713          	slli	a4,a5,0x2
     c9c:	fd842783          	lw	a5,-40(s0)
     ca0:	97ba                	add	a5,a5,a4
     ca2:	00579713          	slli	a4,a5,0x5
     ca6:	fdc42783          	lw	a5,-36(s0)
     caa:	8389                	srli	a5,a5,0x2
     cac:	97ba                	add	a5,a5,a4
     cae:	fef42423          	sw	a5,-24(s0)
     cb2:	fdc42783          	lw	a5,-36(s0)
     cb6:	078e                	slli	a5,a5,0x3
     cb8:	8be1                	andi	a5,a5,24
     cba:	fef42223          	sw	a5,-28(s0)
     cbe:	fe842783          	lw	a5,-24(s0)
     cc2:	078a                	slli	a5,a5,0x2
     cc4:	fec42703          	lw	a4,-20(s0)
     cc8:	97ba                	add	a5,a5,a4
     cca:	439c                	lw	a5,0(a5)
     ccc:	fef42023          	sw	a5,-32(s0)
     cd0:	fe442783          	lw	a5,-28(s0)
     cd4:	0ff00713          	li	a4,255
     cd8:	00f717b3          	sll	a5,a4,a5
     cdc:	fff7c793          	not	a5,a5
     ce0:	873e                	mv	a4,a5
     ce2:	fe042783          	lw	a5,-32(s0)
     ce6:	8ff9                	and	a5,a5,a4
     ce8:	fef42023          	sw	a5,-32(s0)
     cec:	fd744703          	lbu	a4,-41(s0)
     cf0:	fe442783          	lw	a5,-28(s0)
     cf4:	00f717b3          	sll	a5,a4,a5
     cf8:	fe042703          	lw	a4,-32(s0)
     cfc:	8fd9                	or	a5,a5,a4
     cfe:	fef42023          	sw	a5,-32(s0)
     d02:	fe842783          	lw	a5,-24(s0)
     d06:	078a                	slli	a5,a5,0x2
     d08:	fec42703          	lw	a4,-20(s0)
     d0c:	97ba                	add	a5,a5,a4
     d0e:	fe042703          	lw	a4,-32(s0)
     d12:	c398                	sw	a4,0(a5)
     d14:	0001                	nop
     d16:	5432                	lw	s0,44(sp)
     d18:	6145                	addi	sp,sp,48
     d1a:	8082                	ret

00000d1c <text_init>:
     d1c:	1141                	addi	sp,sp,-16
     d1e:	c622                	sw	s0,12(sp)
     d20:	0800                	addi	s0,sp,16
     d22:	001027b7          	lui	a5,0x102
     d26:	d607ae23          	sw	zero,-644(a5) # 101d7c <cur_x>
     d2a:	001027b7          	lui	a5,0x102
     d2e:	d807a023          	sw	zero,-640(a5) # 101d80 <cur_y>
     d32:	001027b7          	lui	a5,0x102
     d36:	03f00713          	li	a4,63
     d3a:	d8e78223          	sb	a4,-636(a5) # 101d84 <cur_text_color>
     d3e:	001027b7          	lui	a5,0x102
     d42:	d80782a3          	sb	zero,-635(a5) # 101d85 <cur_fon_color>
     d46:	0001                	nop
     d48:	4432                	lw	s0,12(sp)
     d4a:	0141                	addi	sp,sp,16
     d4c:	8082                	ret

00000d4e <text_set_pos_to_zero>:
     d4e:	1141                	addi	sp,sp,-16
     d50:	c622                	sw	s0,12(sp)
     d52:	0800                	addi	s0,sp,16
     d54:	001027b7          	lui	a5,0x102
     d58:	d607ae23          	sw	zero,-644(a5) # 101d7c <cur_x>
     d5c:	001027b7          	lui	a5,0x102
     d60:	d807a023          	sw	zero,-640(a5) # 101d80 <cur_y>
     d64:	0001                	nop
     d66:	4432                	lw	s0,12(sp)
     d68:	0141                	addi	sp,sp,16
     d6a:	8082                	ret

00000d6c <set_text_color>:
     d6c:	1101                	addi	sp,sp,-32
     d6e:	ce22                	sw	s0,28(sp)
     d70:	1000                	addi	s0,sp,32
     d72:	87aa                	mv	a5,a0
     d74:	fef407a3          	sb	a5,-17(s0)
     d78:	001027b7          	lui	a5,0x102
     d7c:	fef44703          	lbu	a4,-17(s0)
     d80:	d8e78223          	sb	a4,-636(a5) # 101d84 <cur_text_color>
     d84:	0001                	nop
     d86:	4472                	lw	s0,28(sp)
     d88:	6105                	addi	sp,sp,32
     d8a:	8082                	ret

00000d8c <set_fon_color>:
     d8c:	1101                	addi	sp,sp,-32
     d8e:	ce22                	sw	s0,28(sp)
     d90:	1000                	addi	s0,sp,32
     d92:	87aa                	mv	a5,a0
     d94:	fef407a3          	sb	a5,-17(s0)
     d98:	001027b7          	lui	a5,0x102
     d9c:	fef44703          	lbu	a4,-17(s0)
     da0:	d8e782a3          	sb	a4,-635(a5) # 101d85 <cur_fon_color>
     da4:	0001                	nop
     da6:	4472                	lw	s0,28(sp)
     da8:	6105                	addi	sp,sp,32
     daa:	8082                	ret

00000dac <text_putchar>:
     dac:	1101                	addi	sp,sp,-32
     dae:	ce06                	sw	ra,28(sp)
     db0:	cc22                	sw	s0,24(sp)
     db2:	1000                	addi	s0,sp,32
     db4:	87aa                	mv	a5,a0
     db6:	fef407a3          	sb	a5,-17(s0)
     dba:	fef44783          	lbu	a5,-17(s0)
     dbe:	4735                	li	a4,13
     dc0:	00e78a63          	beq	a5,a4,dd4 <text_putchar+0x28>
     dc4:	4735                	li	a4,13
     dc6:	02f74763          	blt	a4,a5,df4 <text_putchar+0x48>
     dca:	cbd9                	beqz	a5,e60 <text_putchar+0xb4>
     dcc:	4729                	li	a4,10
     dce:	00e78863          	beq	a5,a4,dde <text_putchar+0x32>
     dd2:	a00d                	j	df4 <text_putchar+0x48>
     dd4:	001027b7          	lui	a5,0x102
     dd8:	d607ae23          	sw	zero,-644(a5) # 101d7c <cur_x>
     ddc:	a899                	j	e32 <text_putchar+0x86>
     dde:	001027b7          	lui	a5,0x102
     de2:	d807a783          	lw	a5,-640(a5) # 101d80 <cur_y>
     de6:	01078713          	addi	a4,a5,16
     dea:	001027b7          	lui	a5,0x102
     dee:	d8e7a023          	sw	a4,-640(a5) # 101d80 <cur_y>
     df2:	a081                	j	e32 <text_putchar+0x86>
     df4:	001027b7          	lui	a5,0x102
     df8:	d7c7a503          	lw	a0,-644(a5) # 101d7c <cur_x>
     dfc:	001027b7          	lui	a5,0x102
     e00:	d807a583          	lw	a1,-640(a5) # 101d80 <cur_y>
     e04:	001027b7          	lui	a5,0x102
     e08:	d847c683          	lbu	a3,-636(a5) # 101d84 <cur_text_color>
     e0c:	001027b7          	lui	a5,0x102
     e10:	d857c703          	lbu	a4,-635(a5) # 101d85 <cur_fon_color>
     e14:	fef44783          	lbu	a5,-17(s0)
     e18:	863e                	mv	a2,a5
     e1a:	2881                	jal	e6a <draw_simbol>
     e1c:	001027b7          	lui	a5,0x102
     e20:	d7c7a783          	lw	a5,-644(a5) # 101d7c <cur_x>
     e24:	00878713          	addi	a4,a5,8
     e28:	001027b7          	lui	a5,0x102
     e2c:	d6e7ae23          	sw	a4,-644(a5) # 101d7c <cur_x>
     e30:	0001                	nop
     e32:	001027b7          	lui	a5,0x102
     e36:	d7c7a703          	lw	a4,-644(a5) # 101d7c <cur_x>
     e3a:	27700793          	li	a5,631
     e3e:	02e7f263          	bgeu	a5,a4,e62 <text_putchar+0xb6>
     e42:	001027b7          	lui	a5,0x102
     e46:	d607ae23          	sw	zero,-644(a5) # 101d7c <cur_x>
     e4a:	001027b7          	lui	a5,0x102
     e4e:	d807a783          	lw	a5,-640(a5) # 101d80 <cur_y>
     e52:	01078713          	addi	a4,a5,16
     e56:	001027b7          	lui	a5,0x102
     e5a:	d8e7a023          	sw	a4,-640(a5) # 101d80 <cur_y>
     e5e:	a011                	j	e62 <text_putchar+0xb6>
     e60:	0001                	nop
     e62:	40f2                	lw	ra,28(sp)
     e64:	4462                	lw	s0,24(sp)
     e66:	6105                	addi	sp,sp,32
     e68:	8082                	ret

00000e6a <draw_simbol>:
     e6a:	7179                	addi	sp,sp,-48
     e6c:	d606                	sw	ra,44(sp)
     e6e:	d422                	sw	s0,40(sp)
     e70:	1800                	addi	s0,sp,48
     e72:	fca42e23          	sw	a0,-36(s0)
     e76:	fcb42c23          	sw	a1,-40(s0)
     e7a:	87b2                	mv	a5,a2
     e7c:	fcf40ba3          	sb	a5,-41(s0)
     e80:	87b6                	mv	a5,a3
     e82:	fcf40b23          	sb	a5,-42(s0)
     e86:	87ba                	mv	a5,a4
     e88:	fcf40aa3          	sb	a5,-43(s0)
     e8c:	fdc42703          	lw	a4,-36(s0)
     e90:	27700793          	li	a5,631
     e94:	0ce7e663          	bltu	a5,a4,f60 <draw_simbol+0xf6>
     e98:	fd842703          	lw	a4,-40(s0)
     e9c:	1cf00793          	li	a5,463
     ea0:	0ce7e063          	bltu	a5,a4,f60 <draw_simbol+0xf6>
     ea4:	fe042623          	sw	zero,-20(s0)
     ea8:	a075                	j	f54 <draw_simbol+0xea>
     eaa:	fe042423          	sw	zero,-24(s0)
     eae:	a849                	j	f40 <draw_simbol+0xd6>
     eb0:	fd744783          	lbu	a5,-41(s0)
     eb4:	00479713          	slli	a4,a5,0x4
     eb8:	fec42783          	lw	a5,-20(s0)
     ebc:	97ba                	add	a5,a5,a4
     ebe:	fef42223          	sw	a5,-28(s0)
     ec2:	471d                	li	a4,7
     ec4:	fe842783          	lw	a5,-24(s0)
     ec8:	40f707b3          	sub	a5,a4,a5
     ecc:	fef42023          	sw	a5,-32(s0)
     ed0:	001017b7          	lui	a5,0x101
     ed4:	14078713          	addi	a4,a5,320 # 101140 <font_image>
     ed8:	fe442783          	lw	a5,-28(s0)
     edc:	97ba                	add	a5,a5,a4
     ede:	0007c783          	lbu	a5,0(a5)
     ee2:	873e                	mv	a4,a5
     ee4:	fe042783          	lw	a5,-32(s0)
     ee8:	40f757b3          	sra	a5,a4,a5
     eec:	8b85                	andi	a5,a5,1
     eee:	c39d                	beqz	a5,f14 <draw_simbol+0xaa>
     ef0:	fe842703          	lw	a4,-24(s0)
     ef4:	fdc42783          	lw	a5,-36(s0)
     ef8:	00f706b3          	add	a3,a4,a5
     efc:	fec42703          	lw	a4,-20(s0)
     f00:	fd842783          	lw	a5,-40(s0)
     f04:	97ba                	add	a5,a5,a4
     f06:	fd644703          	lbu	a4,-42(s0)
     f0a:	863a                	mv	a2,a4
     f0c:	85be                	mv	a1,a5
     f0e:	8536                	mv	a0,a3
     f10:	33a5                	jal	c78 <draw_pixel>
     f12:	a015                	j	f36 <draw_simbol+0xcc>
     f14:	fe842703          	lw	a4,-24(s0)
     f18:	fdc42783          	lw	a5,-36(s0)
     f1c:	00f706b3          	add	a3,a4,a5
     f20:	fec42703          	lw	a4,-20(s0)
     f24:	fd842783          	lw	a5,-40(s0)
     f28:	97ba                	add	a5,a5,a4
     f2a:	fd544703          	lbu	a4,-43(s0)
     f2e:	863a                	mv	a2,a4
     f30:	85be                	mv	a1,a5
     f32:	8536                	mv	a0,a3
     f34:	3391                	jal	c78 <draw_pixel>
     f36:	fe842783          	lw	a5,-24(s0)
     f3a:	0785                	addi	a5,a5,1
     f3c:	fef42423          	sw	a5,-24(s0)
     f40:	fe842703          	lw	a4,-24(s0)
     f44:	479d                	li	a5,7
     f46:	f6e7d5e3          	bge	a5,a4,eb0 <draw_simbol+0x46>
     f4a:	fec42783          	lw	a5,-20(s0)
     f4e:	0785                	addi	a5,a5,1
     f50:	fef42623          	sw	a5,-20(s0)
     f54:	fec42703          	lw	a4,-20(s0)
     f58:	47bd                	li	a5,15
     f5a:	f4e7d8e3          	bge	a5,a4,eaa <draw_simbol+0x40>
     f5e:	a011                	j	f62 <draw_simbol+0xf8>
     f60:	0001                	nop
     f62:	50b2                	lw	ra,44(sp)
     f64:	5422                	lw	s0,40(sp)
     f66:	6145                	addi	sp,sp,48
     f68:	8082                	ret

00000f6a <spi_setup_slave>:
     f6a:	1141                	addi	sp,sp,-16
     f6c:	c606                	sw	ra,12(sp)
     f6e:	c422                	sw	s0,8(sp)
     f70:	0800                	addi	s0,sp,16
     f72:	4581                	li	a1,0
     f74:	4511                	li	a0,4
     f76:	24f1                	jal	1242 <set_pin_function>
     f78:	4581                	li	a1,0
     f7a:	4515                	li	a0,5
     f7c:	24d9                	jal	1242 <set_pin_function>
     f7e:	4581                	li	a1,0
     f80:	4519                	li	a0,6
     f82:	24c1                	jal	1242 <set_pin_function>
     f84:	4581                	li	a1,0
     f86:	451d                	li	a0,7
     f88:	2c6d                	jal	1242 <set_pin_function>
     f8a:	4581                	li	a1,0
     f8c:	450d                	li	a0,3
     f8e:	2c55                	jal	1242 <set_pin_function>
     f90:	0001                	nop
     f92:	40b2                	lw	ra,12(sp)
     f94:	4422                	lw	s0,8(sp)
     f96:	0141                	addi	sp,sp,16
     f98:	8082                	ret

00000f9a <spi_setup_master>:
     f9a:	1101                	addi	sp,sp,-32
     f9c:	ce06                	sw	ra,28(sp)
     f9e:	cc22                	sw	s0,24(sp)
     fa0:	1000                	addi	s0,sp,32
     fa2:	fea42623          	sw	a0,-20(s0)
     fa6:	4581                	li	a1,0
     fa8:	453d                	li	a0,15
     faa:	2c61                	jal	1242 <set_pin_function>
     fac:	4581                	li	a1,0
     fae:	4539                	li	a0,14
     fb0:	2c49                	jal	1242 <set_pin_function>
     fb2:	4581                	li	a1,0
     fb4:	4535                	li	a0,13
     fb6:	2471                	jal	1242 <set_pin_function>
     fb8:	4581                	li	a1,0
     fba:	4531                	li	a0,12
     fbc:	2459                	jal	1242 <set_pin_function>
     fbe:	fec42783          	lw	a5,-20(s0)
     fc2:	00f05563          	blez	a5,fcc <spi_setup_master+0x32>
     fc6:	4581                	li	a1,0
     fc8:	4541                	li	a0,16
     fca:	2ca5                	jal	1242 <set_pin_function>
     fcc:	fec42703          	lw	a4,-20(s0)
     fd0:	4785                	li	a5,1
     fd2:	00e7d563          	bge	a5,a4,fdc <spi_setup_master+0x42>
     fd6:	4581                	li	a1,0
     fd8:	452d                	li	a0,11
     fda:	24a5                	jal	1242 <set_pin_function>
     fdc:	fec42703          	lw	a4,-20(s0)
     fe0:	4789                	li	a5,2
     fe2:	00e7d563          	bge	a5,a4,fec <spi_setup_master+0x52>
     fe6:	4581                	li	a1,0
     fe8:	4501                	li	a0,0
     fea:	2ca1                	jal	1242 <set_pin_function>
     fec:	fec42703          	lw	a4,-20(s0)
     ff0:	478d                	li	a5,3
     ff2:	00e7d563          	bge	a5,a4,ffc <spi_setup_master+0x62>
     ff6:	4581                	li	a1,0
     ff8:	4505                	li	a0,1
     ffa:	24a1                	jal	1242 <set_pin_function>
     ffc:	0001                	nop
     ffe:	40f2                	lw	ra,28(sp)
    1000:	4462                	lw	s0,24(sp)
    1002:	6105                	addi	sp,sp,32
    1004:	8082                	ret

00001006 <spi_setup_cmd_addr>:
    1006:	7179                	addi	sp,sp,-48
    1008:	d622                	sw	s0,44(sp)
    100a:	1800                	addi	s0,sp,48
    100c:	fca42e23          	sw	a0,-36(s0)
    1010:	fcb42c23          	sw	a1,-40(s0)
    1014:	fcc42a23          	sw	a2,-44(s0)
    1018:	fcd42823          	sw	a3,-48(s0)
    101c:	02000713          	li	a4,32
    1020:	fd842783          	lw	a5,-40(s0)
    1024:	40f707b3          	sub	a5,a4,a5
    1028:	fdc42703          	lw	a4,-36(s0)
    102c:	00f717b3          	sll	a5,a4,a5
    1030:	fef42623          	sw	a5,-20(s0)
    1034:	1a1027b7          	lui	a5,0x1a102
    1038:	07a1                	addi	a5,a5,8
    103a:	fec42703          	lw	a4,-20(s0)
    103e:	c398                	sw	a4,0(a5)
    1040:	1a1027b7          	lui	a5,0x1a102
    1044:	07b1                	addi	a5,a5,12
    1046:	fd442703          	lw	a4,-44(s0)
    104a:	c398                	sw	a4,0(a5)
    104c:	fd842783          	lw	a5,-40(s0)
    1050:	03f7f693          	andi	a3,a5,63
    1054:	fd042783          	lw	a5,-48(s0)
    1058:	00879713          	slli	a4,a5,0x8
    105c:	6791                	lui	a5,0x4
    105e:	f0078793          	addi	a5,a5,-256 # 3f00 <adxl362_set_interrupt_pin1_active_level+0x94>
    1062:	8f7d                	and	a4,a4,a5
    1064:	1a1027b7          	lui	a5,0x1a102
    1068:	07c1                	addi	a5,a5,16
    106a:	8f55                	or	a4,a4,a3
    106c:	c398                	sw	a4,0(a5)
    106e:	0001                	nop
    1070:	5432                	lw	s0,44(sp)
    1072:	6145                	addi	sp,sp,48
    1074:	8082                	ret

00001076 <spi_setup_dummy>:
    1076:	1101                	addi	sp,sp,-32
    1078:	ce22                	sw	s0,28(sp)
    107a:	1000                	addi	s0,sp,32
    107c:	fea42623          	sw	a0,-20(s0)
    1080:	feb42423          	sw	a1,-24(s0)
    1084:	fe842783          	lw	a5,-24(s0)
    1088:	07c2                	slli	a5,a5,0x10
    108a:	86be                	mv	a3,a5
    108c:	fec42703          	lw	a4,-20(s0)
    1090:	67c1                	lui	a5,0x10
    1092:	17fd                	addi	a5,a5,-1
    1094:	8ff9                	and	a5,a5,a4
    1096:	00f6e733          	or	a4,a3,a5
    109a:	1a1027b7          	lui	a5,0x1a102
    109e:	07d1                	addi	a5,a5,20
    10a0:	c398                	sw	a4,0(a5)
    10a2:	0001                	nop
    10a4:	4472                	lw	s0,28(sp)
    10a6:	6105                	addi	sp,sp,32
    10a8:	8082                	ret

000010aa <spi_set_datalen>:
    10aa:	7179                	addi	sp,sp,-48
    10ac:	d622                	sw	s0,44(sp)
    10ae:	1800                	addi	s0,sp,48
    10b0:	fca42e23          	sw	a0,-36(s0)
    10b4:	1a1027b7          	lui	a5,0x1a102
    10b8:	07c1                	addi	a5,a5,16
    10ba:	439c                	lw	a5,0(a5)
    10bc:	fef42623          	sw	a5,-20(s0)
    10c0:	fdc42783          	lw	a5,-36(s0)
    10c4:	07c2                	slli	a5,a5,0x10
    10c6:	873e                	mv	a4,a5
    10c8:	fec42783          	lw	a5,-20(s0)
    10cc:	86be                	mv	a3,a5
    10ce:	67c1                	lui	a5,0x10
    10d0:	17fd                	addi	a5,a5,-1
    10d2:	8ff5                	and	a5,a5,a3
    10d4:	8fd9                	or	a5,a5,a4
    10d6:	fef42623          	sw	a5,-20(s0)
    10da:	1a1027b7          	lui	a5,0x1a102
    10de:	07c1                	addi	a5,a5,16
    10e0:	fec42703          	lw	a4,-20(s0)
    10e4:	c398                	sw	a4,0(a5)
    10e6:	0001                	nop
    10e8:	5432                	lw	s0,44(sp)
    10ea:	6145                	addi	sp,sp,48
    10ec:	8082                	ret

000010ee <spi_start_transaction>:
    10ee:	1101                	addi	sp,sp,-32
    10f0:	ce22                	sw	s0,28(sp)
    10f2:	1000                	addi	s0,sp,32
    10f4:	fea42623          	sw	a0,-20(s0)
    10f8:	feb42423          	sw	a1,-24(s0)
    10fc:	fe842783          	lw	a5,-24(s0)
    1100:	07a1                	addi	a5,a5,8
    1102:	4705                	li	a4,1
    1104:	00f71733          	sll	a4,a4,a5
    1108:	6785                	lui	a5,0x1
    110a:	f0078793          	addi	a5,a5,-256 # f00 <draw_simbol+0x96>
    110e:	00f776b3          	and	a3,a4,a5
    1112:	fec42783          	lw	a5,-20(s0)
    1116:	4705                	li	a4,1
    1118:	00f717b3          	sll	a5,a4,a5
    111c:	0ff7f713          	andi	a4,a5,255
    1120:	1a1027b7          	lui	a5,0x1a102
    1124:	8f55                	or	a4,a4,a3
    1126:	c398                	sw	a4,0(a5)
    1128:	0001                	nop
    112a:	4472                	lw	s0,28(sp)
    112c:	6105                	addi	sp,sp,32
    112e:	8082                	ret

00001130 <spi_get_status>:
    1130:	1101                	addi	sp,sp,-32
    1132:	ce22                	sw	s0,28(sp)
    1134:	1000                	addi	s0,sp,32
    1136:	1a1027b7          	lui	a5,0x1a102
    113a:	439c                	lw	a5,0(a5)
    113c:	fef42623          	sw	a5,-20(s0)
    1140:	fec42783          	lw	a5,-20(s0)
    1144:	853e                	mv	a0,a5
    1146:	4472                	lw	s0,28(sp)
    1148:	6105                	addi	sp,sp,32
    114a:	8082                	ret

0000114c <spi_write_fifo>:
    114c:	7179                	addi	sp,sp,-48
    114e:	d622                	sw	s0,44(sp)
    1150:	1800                	addi	s0,sp,48
    1152:	fca42e23          	sw	a0,-36(s0)
    1156:	fcb42c23          	sw	a1,-40(s0)
    115a:	fd842783          	lw	a5,-40(s0)
    115e:	8795                	srai	a5,a5,0x5
    1160:	7ff7f793          	andi	a5,a5,2047
    1164:	fef42623          	sw	a5,-20(s0)
    1168:	fd842783          	lw	a5,-40(s0)
    116c:	8bfd                	andi	a5,a5,31
    116e:	c791                	beqz	a5,117a <spi_write_fifo+0x2e>
    1170:	fec42783          	lw	a5,-20(s0)
    1174:	0785                	addi	a5,a5,1
    1176:	fef42623          	sw	a5,-20(s0)
    117a:	fe042423          	sw	zero,-24(s0)
    117e:	a80d                	j	11b0 <spi_write_fifo+0x64>
    1180:	0001                	nop
    1182:	1a1027b7          	lui	a5,0x1a102
    1186:	439c                	lw	a5,0(a5)
    1188:	87e1                	srai	a5,a5,0x18
    118a:	0f87f793          	andi	a5,a5,248
    118e:	fbf5                	bnez	a5,1182 <spi_write_fifo+0x36>
    1190:	fe842783          	lw	a5,-24(s0)
    1194:	078a                	slli	a5,a5,0x2
    1196:	fdc42703          	lw	a4,-36(s0)
    119a:	973e                	add	a4,a4,a5
    119c:	1a1027b7          	lui	a5,0x1a102
    11a0:	07e1                	addi	a5,a5,24
    11a2:	4318                	lw	a4,0(a4)
    11a4:	c398                	sw	a4,0(a5)
    11a6:	fe842783          	lw	a5,-24(s0)
    11aa:	0785                	addi	a5,a5,1
    11ac:	fef42423          	sw	a5,-24(s0)
    11b0:	fe842703          	lw	a4,-24(s0)
    11b4:	fec42783          	lw	a5,-20(s0)
    11b8:	fcf744e3          	blt	a4,a5,1180 <spi_write_fifo+0x34>
    11bc:	0001                	nop
    11be:	0001                	nop
    11c0:	5432                	lw	s0,44(sp)
    11c2:	6145                	addi	sp,sp,48
    11c4:	8082                	ret

000011c6 <spi_read_fifo>:
    11c6:	7179                	addi	sp,sp,-48
    11c8:	d622                	sw	s0,44(sp)
    11ca:	1800                	addi	s0,sp,48
    11cc:	fca42e23          	sw	a0,-36(s0)
    11d0:	fcb42c23          	sw	a1,-40(s0)
    11d4:	fd842783          	lw	a5,-40(s0)
    11d8:	8795                	srai	a5,a5,0x5
    11da:	7ff7f793          	andi	a5,a5,2047
    11de:	fef42623          	sw	a5,-20(s0)
    11e2:	fd842783          	lw	a5,-40(s0)
    11e6:	8bfd                	andi	a5,a5,31
    11e8:	c791                	beqz	a5,11f4 <spi_read_fifo+0x2e>
    11ea:	fec42783          	lw	a5,-20(s0)
    11ee:	0785                	addi	a5,a5,1
    11f0:	fef42623          	sw	a5,-20(s0)
    11f4:	fe042423          	sw	zero,-24(s0)
    11f8:	a815                	j	122c <spi_read_fifo+0x66>
    11fa:	0001                	nop
    11fc:	1a1027b7          	lui	a5,0x1a102
    1200:	439c                	lw	a5,0(a5)
    1202:	87c1                	srai	a5,a5,0x10
    1204:	0ff7f793          	andi	a5,a5,255
    1208:	dbf5                	beqz	a5,11fc <spi_read_fifo+0x36>
    120a:	1a1027b7          	lui	a5,0x1a102
    120e:	02078713          	addi	a4,a5,32 # 1a102020 <_stack_start+0x19ffa020>
    1212:	fe842783          	lw	a5,-24(s0)
    1216:	078a                	slli	a5,a5,0x2
    1218:	fdc42683          	lw	a3,-36(s0)
    121c:	97b6                	add	a5,a5,a3
    121e:	4318                	lw	a4,0(a4)
    1220:	c398                	sw	a4,0(a5)
    1222:	fe842783          	lw	a5,-24(s0)
    1226:	0785                	addi	a5,a5,1
    1228:	fef42423          	sw	a5,-24(s0)
    122c:	fe842703          	lw	a4,-24(s0)
    1230:	fec42783          	lw	a5,-20(s0)
    1234:	fcf743e3          	blt	a4,a5,11fa <spi_read_fifo+0x34>
    1238:	0001                	nop
    123a:	0001                	nop
    123c:	5432                	lw	s0,44(sp)
    123e:	6145                	addi	sp,sp,48
    1240:	8082                	ret

00001242 <set_pin_function>:
    1242:	7179                	addi	sp,sp,-48
    1244:	d622                	sw	s0,44(sp)
    1246:	1800                	addi	s0,sp,48
    1248:	fca42e23          	sw	a0,-36(s0)
    124c:	fcb42c23          	sw	a1,-40(s0)
    1250:	1a1077b7          	lui	a5,0x1a107
    1254:	439c                	lw	a5,0(a5)
    1256:	fef42623          	sw	a5,-20(s0)
    125a:	fdc42783          	lw	a5,-36(s0)
    125e:	4705                	li	a4,1
    1260:	00f717b3          	sll	a5,a4,a5
    1264:	fff7c713          	not	a4,a5
    1268:	fec42783          	lw	a5,-20(s0)
    126c:	8ff9                	and	a5,a5,a4
    126e:	fef42623          	sw	a5,-20(s0)
    1272:	fdc42783          	lw	a5,-36(s0)
    1276:	fd842703          	lw	a4,-40(s0)
    127a:	00f71733          	sll	a4,a4,a5
    127e:	fec42783          	lw	a5,-20(s0)
    1282:	8fd9                	or	a5,a5,a4
    1284:	fef42623          	sw	a5,-20(s0)
    1288:	1a1077b7          	lui	a5,0x1a107
    128c:	fec42703          	lw	a4,-20(s0)
    1290:	c398                	sw	a4,0(a5)
    1292:	0001                	nop
    1294:	5432                	lw	s0,44(sp)
    1296:	6145                	addi	sp,sp,48
    1298:	8082                	ret

0000129a <get_pin_function>:
    129a:	7179                	addi	sp,sp,-48
    129c:	d622                	sw	s0,44(sp)
    129e:	1800                	addi	s0,sp,48
    12a0:	fca42e23          	sw	a0,-36(s0)
    12a4:	1a1077b7          	lui	a5,0x1a107
    12a8:	439c                	lw	a5,0(a5)
    12aa:	fef42623          	sw	a5,-20(s0)
    12ae:	fec42703          	lw	a4,-20(s0)
    12b2:	fdc42783          	lw	a5,-36(s0)
    12b6:	40f757b3          	sra	a5,a4,a5
    12ba:	8b85                	andi	a5,a5,1
    12bc:	fef42623          	sw	a5,-20(s0)
    12c0:	fec42783          	lw	a5,-20(s0)
    12c4:	853e                	mv	a0,a5
    12c6:	5432                	lw	s0,44(sp)
    12c8:	6145                	addi	sp,sp,48
    12ca:	8082                	ret

000012cc <set_gpio_pin_direction>:
    12cc:	7179                	addi	sp,sp,-48
    12ce:	d622                	sw	s0,44(sp)
    12d0:	1800                	addi	s0,sp,48
    12d2:	fca42e23          	sw	a0,-36(s0)
    12d6:	fcb42c23          	sw	a1,-40(s0)
    12da:	1a1017b7          	lui	a5,0x1a101
    12de:	439c                	lw	a5,0(a5)
    12e0:	fef42623          	sw	a5,-20(s0)
    12e4:	fd842783          	lw	a5,-40(s0)
    12e8:	ef91                	bnez	a5,1304 <set_gpio_pin_direction+0x38>
    12ea:	fdc42783          	lw	a5,-36(s0)
    12ee:	4705                	li	a4,1
    12f0:	00f717b3          	sll	a5,a4,a5
    12f4:	fff7c713          	not	a4,a5
    12f8:	fec42783          	lw	a5,-20(s0)
    12fc:	8ff9                	and	a5,a5,a4
    12fe:	fef42623          	sw	a5,-20(s0)
    1302:	a819                	j	1318 <set_gpio_pin_direction+0x4c>
    1304:	fdc42783          	lw	a5,-36(s0)
    1308:	4705                	li	a4,1
    130a:	00f71733          	sll	a4,a4,a5
    130e:	fec42783          	lw	a5,-20(s0)
    1312:	8fd9                	or	a5,a5,a4
    1314:	fef42623          	sw	a5,-20(s0)
    1318:	1a1017b7          	lui	a5,0x1a101
    131c:	fec42703          	lw	a4,-20(s0)
    1320:	c398                	sw	a4,0(a5)
    1322:	0001                	nop
    1324:	5432                	lw	s0,44(sp)
    1326:	6145                	addi	sp,sp,48
    1328:	8082                	ret

0000132a <get_gpio_pin_direction>:
    132a:	7179                	addi	sp,sp,-48
    132c:	d622                	sw	s0,44(sp)
    132e:	1800                	addi	s0,sp,48
    1330:	fca42e23          	sw	a0,-36(s0)
    1334:	1a1017b7          	lui	a5,0x1a101
    1338:	439c                	lw	a5,0(a5)
    133a:	fef42623          	sw	a5,-20(s0)
    133e:	fec42703          	lw	a4,-20(s0)
    1342:	fdc42783          	lw	a5,-36(s0)
    1346:	0786                	slli	a5,a5,0x1
    1348:	40f757b3          	sra	a5,a4,a5
    134c:	8b85                	andi	a5,a5,1
    134e:	fef42623          	sw	a5,-20(s0)
    1352:	fec42783          	lw	a5,-20(s0)
    1356:	853e                	mv	a0,a5
    1358:	5432                	lw	s0,44(sp)
    135a:	6145                	addi	sp,sp,48
    135c:	8082                	ret

0000135e <set_gpio_pin_value>:
    135e:	7179                	addi	sp,sp,-48
    1360:	d622                	sw	s0,44(sp)
    1362:	1800                	addi	s0,sp,48
    1364:	fca42e23          	sw	a0,-36(s0)
    1368:	fcb42c23          	sw	a1,-40(s0)
    136c:	1a1017b7          	lui	a5,0x1a101
    1370:	07a1                	addi	a5,a5,8
    1372:	439c                	lw	a5,0(a5)
    1374:	fef42623          	sw	a5,-20(s0)
    1378:	fd842783          	lw	a5,-40(s0)
    137c:	ef91                	bnez	a5,1398 <set_gpio_pin_value+0x3a>
    137e:	fdc42783          	lw	a5,-36(s0)
    1382:	4705                	li	a4,1
    1384:	00f717b3          	sll	a5,a4,a5
    1388:	fff7c713          	not	a4,a5
    138c:	fec42783          	lw	a5,-20(s0)
    1390:	8ff9                	and	a5,a5,a4
    1392:	fef42623          	sw	a5,-20(s0)
    1396:	a819                	j	13ac <set_gpio_pin_value+0x4e>
    1398:	fdc42783          	lw	a5,-36(s0)
    139c:	4705                	li	a4,1
    139e:	00f71733          	sll	a4,a4,a5
    13a2:	fec42783          	lw	a5,-20(s0)
    13a6:	8fd9                	or	a5,a5,a4
    13a8:	fef42623          	sw	a5,-20(s0)
    13ac:	1a1017b7          	lui	a5,0x1a101
    13b0:	07a1                	addi	a5,a5,8
    13b2:	fec42703          	lw	a4,-20(s0)
    13b6:	c398                	sw	a4,0(a5)
    13b8:	0001                	nop
    13ba:	5432                	lw	s0,44(sp)
    13bc:	6145                	addi	sp,sp,48
    13be:	8082                	ret

000013c0 <get_gpio_pin_value>:
    13c0:	7179                	addi	sp,sp,-48
    13c2:	d622                	sw	s0,44(sp)
    13c4:	1800                	addi	s0,sp,48
    13c6:	fca42e23          	sw	a0,-36(s0)
    13ca:	1a1017b7          	lui	a5,0x1a101
    13ce:	0791                	addi	a5,a5,4
    13d0:	439c                	lw	a5,0(a5)
    13d2:	fef42623          	sw	a5,-20(s0)
    13d6:	fec42703          	lw	a4,-20(s0)
    13da:	fdc42783          	lw	a5,-36(s0)
    13de:	40f757b3          	sra	a5,a4,a5
    13e2:	8b85                	andi	a5,a5,1
    13e4:	fef42623          	sw	a5,-20(s0)
    13e8:	fec42783          	lw	a5,-20(s0)
    13ec:	853e                	mv	a0,a5
    13ee:	5432                	lw	s0,44(sp)
    13f0:	6145                	addi	sp,sp,48
    13f2:	8082                	ret

000013f4 <set_gpio_pin_irq_en>:
    13f4:	7179                	addi	sp,sp,-48
    13f6:	d622                	sw	s0,44(sp)
    13f8:	1800                	addi	s0,sp,48
    13fa:	fca42e23          	sw	a0,-36(s0)
    13fe:	fcb42c23          	sw	a1,-40(s0)
    1402:	1a1017b7          	lui	a5,0x1a101
    1406:	07b1                	addi	a5,a5,12
    1408:	439c                	lw	a5,0(a5)
    140a:	fef42623          	sw	a5,-20(s0)
    140e:	fd842783          	lw	a5,-40(s0)
    1412:	ef91                	bnez	a5,142e <set_gpio_pin_irq_en+0x3a>
    1414:	fdc42783          	lw	a5,-36(s0)
    1418:	4705                	li	a4,1
    141a:	00f717b3          	sll	a5,a4,a5
    141e:	fff7c793          	not	a5,a5
    1422:	fec42703          	lw	a4,-20(s0)
    1426:	8ff9                	and	a5,a5,a4
    1428:	fef42623          	sw	a5,-20(s0)
    142c:	a819                	j	1442 <set_gpio_pin_irq_en+0x4e>
    142e:	fdc42783          	lw	a5,-36(s0)
    1432:	4705                	li	a4,1
    1434:	00f717b3          	sll	a5,a4,a5
    1438:	fec42703          	lw	a4,-20(s0)
    143c:	8fd9                	or	a5,a5,a4
    143e:	fef42623          	sw	a5,-20(s0)
    1442:	1a1017b7          	lui	a5,0x1a101
    1446:	07b1                	addi	a5,a5,12
    1448:	fec42703          	lw	a4,-20(s0)
    144c:	c398                	sw	a4,0(a5)
    144e:	0001                	nop
    1450:	5432                	lw	s0,44(sp)
    1452:	6145                	addi	sp,sp,48
    1454:	8082                	ret

00001456 <set_gpio_pin_irq_type>:
    1456:	7179                	addi	sp,sp,-48
    1458:	d622                	sw	s0,44(sp)
    145a:	1800                	addi	s0,sp,48
    145c:	fca42e23          	sw	a0,-36(s0)
    1460:	fcb42c23          	sw	a1,-40(s0)
    1464:	1a1017b7          	lui	a5,0x1a101
    1468:	07c1                	addi	a5,a5,16
    146a:	439c                	lw	a5,0(a5)
    146c:	fef42623          	sw	a5,-20(s0)
    1470:	1a1017b7          	lui	a5,0x1a101
    1474:	07d1                	addi	a5,a5,20
    1476:	439c                	lw	a5,0(a5)
    1478:	fef42423          	sw	a5,-24(s0)
    147c:	fd842783          	lw	a5,-40(s0)
    1480:	8b85                	andi	a5,a5,1
    1482:	ef91                	bnez	a5,149e <set_gpio_pin_irq_type+0x48>
    1484:	fdc42783          	lw	a5,-36(s0)
    1488:	4705                	li	a4,1
    148a:	00f717b3          	sll	a5,a4,a5
    148e:	fff7c793          	not	a5,a5
    1492:	fec42703          	lw	a4,-20(s0)
    1496:	8ff9                	and	a5,a5,a4
    1498:	fef42623          	sw	a5,-20(s0)
    149c:	a819                	j	14b2 <set_gpio_pin_irq_type+0x5c>
    149e:	fdc42783          	lw	a5,-36(s0)
    14a2:	4705                	li	a4,1
    14a4:	00f717b3          	sll	a5,a4,a5
    14a8:	fec42703          	lw	a4,-20(s0)
    14ac:	8fd9                	or	a5,a5,a4
    14ae:	fef42623          	sw	a5,-20(s0)
    14b2:	fd842783          	lw	a5,-40(s0)
    14b6:	8b89                	andi	a5,a5,2
    14b8:	ef91                	bnez	a5,14d4 <set_gpio_pin_irq_type+0x7e>
    14ba:	fdc42783          	lw	a5,-36(s0)
    14be:	4705                	li	a4,1
    14c0:	00f717b3          	sll	a5,a4,a5
    14c4:	fff7c793          	not	a5,a5
    14c8:	fe842703          	lw	a4,-24(s0)
    14cc:	8ff9                	and	a5,a5,a4
    14ce:	fef42423          	sw	a5,-24(s0)
    14d2:	a819                	j	14e8 <set_gpio_pin_irq_type+0x92>
    14d4:	fdc42783          	lw	a5,-36(s0)
    14d8:	4705                	li	a4,1
    14da:	00f717b3          	sll	a5,a4,a5
    14de:	fe842703          	lw	a4,-24(s0)
    14e2:	8fd9                	or	a5,a5,a4
    14e4:	fef42423          	sw	a5,-24(s0)
    14e8:	1a1017b7          	lui	a5,0x1a101
    14ec:	07c1                	addi	a5,a5,16
    14ee:	fec42703          	lw	a4,-20(s0)
    14f2:	c398                	sw	a4,0(a5)
    14f4:	1a1017b7          	lui	a5,0x1a101
    14f8:	07d1                	addi	a5,a5,20
    14fa:	fe842703          	lw	a4,-24(s0)
    14fe:	c398                	sw	a4,0(a5)
    1500:	0001                	nop
    1502:	5432                	lw	s0,44(sp)
    1504:	6145                	addi	sp,sp,48
    1506:	8082                	ret

00001508 <get_gpio_irq_status>:
    1508:	1141                	addi	sp,sp,-16
    150a:	c622                	sw	s0,12(sp)
    150c:	0800                	addi	s0,sp,16
    150e:	1a1017b7          	lui	a5,0x1a101
    1512:	07e1                	addi	a5,a5,24
    1514:	439c                	lw	a5,0(a5)
    1516:	853e                	mv	a0,a5
    1518:	4432                	lw	s0,12(sp)
    151a:	0141                	addi	sp,sp,16
    151c:	8082                	ret

0000151e <uart_set_cfg>:
    151e:	1101                	addi	sp,sp,-32
    1520:	ce22                	sw	s0,28(sp)
    1522:	1000                	addi	s0,sp,32
    1524:	fea42623          	sw	a0,-20(s0)
    1528:	87ae                	mv	a5,a1
    152a:	fef41523          	sh	a5,-22(s0)
    152e:	1a1077b7          	lui	a5,0x1a107
    1532:	0791                	addi	a5,a5,4
    1534:	4398                	lw	a4,0(a5)
    1536:	1a1077b7          	lui	a5,0x1a107
    153a:	0791                	addi	a5,a5,4
    153c:	00276713          	ori	a4,a4,2
    1540:	c398                	sw	a4,0(a5)
    1542:	1a1007b7          	lui	a5,0x1a100
    1546:	07b1                	addi	a5,a5,12
    1548:	08300713          	li	a4,131
    154c:	c398                	sw	a4,0(a5)
    154e:	fea45783          	lhu	a5,-22(s0)
    1552:	83a1                	srli	a5,a5,0x8
    1554:	07c2                	slli	a5,a5,0x10
    1556:	83c1                	srli	a5,a5,0x10
    1558:	873e                	mv	a4,a5
    155a:	1a1007b7          	lui	a5,0x1a100
    155e:	0791                	addi	a5,a5,4
    1560:	0ff77713          	andi	a4,a4,255
    1564:	c398                	sw	a4,0(a5)
    1566:	fea45703          	lhu	a4,-22(s0)
    156a:	1a1007b7          	lui	a5,0x1a100
    156e:	0ff77713          	andi	a4,a4,255
    1572:	c398                	sw	a4,0(a5)
    1574:	1a1007b7          	lui	a5,0x1a100
    1578:	07a1                	addi	a5,a5,8
    157a:	0a700713          	li	a4,167
    157e:	c398                	sw	a4,0(a5)
    1580:	1a1007b7          	lui	a5,0x1a100
    1584:	07b1                	addi	a5,a5,12
    1586:	470d                	li	a4,3
    1588:	c398                	sw	a4,0(a5)
    158a:	1a1007b7          	lui	a5,0x1a100
    158e:	0791                	addi	a5,a5,4
    1590:	439c                	lw	a5,0(a5)
    1592:	0f07f713          	andi	a4,a5,240
    1596:	1a1007b7          	lui	a5,0x1a100
    159a:	0791                	addi	a5,a5,4
    159c:	00276713          	ori	a4,a4,2
    15a0:	c398                	sw	a4,0(a5)
    15a2:	0001                	nop
    15a4:	4472                	lw	s0,28(sp)
    15a6:	6105                	addi	sp,sp,32
    15a8:	8082                	ret

000015aa <uart_send>:
    15aa:	7179                	addi	sp,sp,-48
    15ac:	d622                	sw	s0,44(sp)
    15ae:	1800                	addi	s0,sp,48
    15b0:	fca42e23          	sw	a0,-36(s0)
    15b4:	fcb42c23          	sw	a1,-40(s0)
    15b8:	a891                	j	160c <uart_send+0x62>
    15ba:	0001                	nop
    15bc:	1a1007b7          	lui	a5,0x1a100
    15c0:	07d1                	addi	a5,a5,20
    15c2:	439c                	lw	a5,0(a5)
    15c4:	0207f793          	andi	a5,a5,32
    15c8:	dbf5                	beqz	a5,15bc <uart_send+0x12>
    15ca:	fe042623          	sw	zero,-20(s0)
    15ce:	a035                	j	15fa <uart_send+0x50>
    15d0:	fdc42783          	lw	a5,-36(s0)
    15d4:	00178713          	addi	a4,a5,1 # 1a100001 <_stack_start+0x19ff8001>
    15d8:	fce42e23          	sw	a4,-36(s0)
    15dc:	0007c703          	lbu	a4,0(a5)
    15e0:	1a1007b7          	lui	a5,0x1a100
    15e4:	c398                	sw	a4,0(a5)
    15e6:	fd842783          	lw	a5,-40(s0)
    15ea:	17fd                	addi	a5,a5,-1
    15ec:	fcf42c23          	sw	a5,-40(s0)
    15f0:	fec42783          	lw	a5,-20(s0)
    15f4:	0785                	addi	a5,a5,1
    15f6:	fef42623          	sw	a5,-20(s0)
    15fa:	fec42703          	lw	a4,-20(s0)
    15fe:	03f00793          	li	a5,63
    1602:	00e7e563          	bltu	a5,a4,160c <uart_send+0x62>
    1606:	fd842783          	lw	a5,-40(s0)
    160a:	f3f9                	bnez	a5,15d0 <uart_send+0x26>
    160c:	fd842783          	lw	a5,-40(s0)
    1610:	f7cd                	bnez	a5,15ba <uart_send+0x10>
    1612:	0001                	nop
    1614:	0001                	nop
    1616:	5432                	lw	s0,44(sp)
    1618:	6145                	addi	sp,sp,48
    161a:	8082                	ret

0000161c <uart_getchar>:
    161c:	1141                	addi	sp,sp,-16
    161e:	c622                	sw	s0,12(sp)
    1620:	0800                	addi	s0,sp,16
    1622:	0001                	nop
    1624:	1a1007b7          	lui	a5,0x1a100
    1628:	07d1                	addi	a5,a5,20
    162a:	439c                	lw	a5,0(a5)
    162c:	0017f713          	andi	a4,a5,1
    1630:	4785                	li	a5,1
    1632:	fef719e3          	bne	a4,a5,1624 <uart_getchar+0x8>
    1636:	1a1007b7          	lui	a5,0x1a100
    163a:	439c                	lw	a5,0(a5)
    163c:	0ff7f793          	andi	a5,a5,255
    1640:	853e                	mv	a0,a5
    1642:	4432                	lw	s0,12(sp)
    1644:	0141                	addi	sp,sp,16
    1646:	8082                	ret

00001648 <uart_sendchar>:
    1648:	1101                	addi	sp,sp,-32
    164a:	ce22                	sw	s0,28(sp)
    164c:	1000                	addi	s0,sp,32
    164e:	87aa                	mv	a5,a0
    1650:	fef407a3          	sb	a5,-17(s0)
    1654:	0001                	nop
    1656:	1a1007b7          	lui	a5,0x1a100
    165a:	07d1                	addi	a5,a5,20
    165c:	439c                	lw	a5,0(a5)
    165e:	0207f793          	andi	a5,a5,32
    1662:	dbf5                	beqz	a5,1656 <uart_sendchar+0xe>
    1664:	1a1007b7          	lui	a5,0x1a100
    1668:	fef44703          	lbu	a4,-17(s0)
    166c:	c398                	sw	a4,0(a5)
    166e:	0001                	nop
    1670:	4472                	lw	s0,28(sp)
    1672:	6105                	addi	sp,sp,32
    1674:	8082                	ret

00001676 <uart_wait_tx_done>:
    1676:	1141                	addi	sp,sp,-16
    1678:	c622                	sw	s0,12(sp)
    167a:	0800                	addi	s0,sp,16
    167c:	0001                	nop
    167e:	1a1007b7          	lui	a5,0x1a100
    1682:	07d1                	addi	a5,a5,20
    1684:	439c                	lw	a5,0(a5)
    1686:	0407f793          	andi	a5,a5,64
    168a:	dbf5                	beqz	a5,167e <uart_wait_tx_done+0x8>
    168c:	0001                	nop
    168e:	0001                	nop
    1690:	4432                	lw	s0,12(sp)
    1692:	0141                	addi	sp,sp,16
    1694:	8082                	ret

00001696 <exit>:
    1696:	1101                	addi	sp,sp,-32
    1698:	ce06                	sw	ra,28(sp)
    169a:	cc22                	sw	s0,24(sp)
    169c:	1000                	addi	s0,sp,32
    169e:	fea42623          	sw	a0,-20(s0)
    16a2:	fec42503          	lw	a0,-20(s0)
    16a6:	2011                	jal	16aa <eoc>
    16a8:	a001                	j	16a8 <exit+0x12>

000016aa <eoc>:
    16aa:	1101                	addi	sp,sp,-32
    16ac:	ce06                	sw	ra,28(sp)
    16ae:	cc22                	sw	s0,24(sp)
    16b0:	1000                	addi	s0,sp,32
    16b2:	fea42623          	sw	a0,-20(s0)
    16b6:	fec42783          	lw	a5,-20(s0)
    16ba:	c799                	beqz	a5,16c8 <eoc+0x1e>
    16bc:	1a1077b7          	lui	a5,0x1a107
    16c0:	07d1                	addi	a5,a5,20
    16c2:	4705                	li	a4,1
    16c4:	c398                	sw	a4,0(a5)
    16c6:	a031                	j	16d2 <eoc+0x28>
    16c8:	1a1077b7          	lui	a5,0x1a107
    16cc:	07d1                	addi	a5,a5,20
    16ce:	0007a023          	sw	zero,0(a5) # 1a107000 <_stack_start+0x19fff000>
    16d2:	1a1077b7          	lui	a5,0x1a107
    16d6:	0791                	addi	a5,a5,4
    16d8:	4398                	lw	a4,0(a5)
    16da:	1a1077b7          	lui	a5,0x1a107
    16de:	0791                	addi	a5,a5,4
    16e0:	00476713          	ori	a4,a4,4
    16e4:	c398                	sw	a4,0(a5)
    16e6:	4585                	li	a1,1
    16e8:	4521                	li	a0,8
    16ea:	3ea1                	jal	1242 <set_pin_function>
    16ec:	4585                	li	a1,1
    16ee:	4521                	li	a0,8
    16f0:	3ef1                	jal	12cc <set_gpio_pin_direction>
    16f2:	4585                	li	a1,1
    16f4:	4521                	li	a0,8
    16f6:	31a5                	jal	135e <set_gpio_pin_value>
    16f8:	0001                	nop
    16fa:	40f2                	lw	ra,28(sp)
    16fc:	4462                	lw	s0,24(sp)
    16fe:	6105                	addi	sp,sp,32
    1700:	8082                	ret

00001702 <sleep_busy>:
    1702:	7179                	addi	sp,sp,-48
    1704:	d622                	sw	s0,44(sp)
    1706:	1800                	addi	s0,sp,48
    1708:	fca42e23          	sw	a0,-36(s0)
    170c:	fe042623          	sw	zero,-20(s0)
    1710:	a039                	j	171e <sleep_busy+0x1c>
    1712:	0001                	nop
    1714:	fec42783          	lw	a5,-20(s0)
    1718:	0785                	addi	a5,a5,1
    171a:	fef42623          	sw	a5,-20(s0)
    171e:	fdc42783          	lw	a5,-36(s0)
    1722:	fec42703          	lw	a4,-20(s0)
    1726:	fef746e3          	blt	a4,a5,1712 <sleep_busy+0x10>
    172a:	0001                	nop
    172c:	0001                	nop
    172e:	5432                	lw	s0,44(sp)
    1730:	6145                	addi	sp,sp,48
    1732:	8082                	ret

00001734 <divu10>:
    1734:	7179                	addi	sp,sp,-48
    1736:	d622                	sw	s0,44(sp)
    1738:	1800                	addi	s0,sp,48
    173a:	fca42e23          	sw	a0,-36(s0)
    173e:	fdc42783          	lw	a5,-36(s0)
    1742:	0017d713          	srli	a4,a5,0x1
    1746:	fdc42783          	lw	a5,-36(s0)
    174a:	8389                	srli	a5,a5,0x2
    174c:	97ba                	add	a5,a5,a4
    174e:	fef42623          	sw	a5,-20(s0)
    1752:	fec42783          	lw	a5,-20(s0)
    1756:	8391                	srli	a5,a5,0x4
    1758:	fec42703          	lw	a4,-20(s0)
    175c:	97ba                	add	a5,a5,a4
    175e:	fef42623          	sw	a5,-20(s0)
    1762:	fec42783          	lw	a5,-20(s0)
    1766:	83a1                	srli	a5,a5,0x8
    1768:	fec42703          	lw	a4,-20(s0)
    176c:	97ba                	add	a5,a5,a4
    176e:	fef42623          	sw	a5,-20(s0)
    1772:	fec42783          	lw	a5,-20(s0)
    1776:	83c1                	srli	a5,a5,0x10
    1778:	fec42703          	lw	a4,-20(s0)
    177c:	97ba                	add	a5,a5,a4
    177e:	fef42623          	sw	a5,-20(s0)
    1782:	fec42783          	lw	a5,-20(s0)
    1786:	838d                	srli	a5,a5,0x3
    1788:	fef42623          	sw	a5,-20(s0)
    178c:	fec42703          	lw	a4,-20(s0)
    1790:	87ba                	mv	a5,a4
    1792:	078a                	slli	a5,a5,0x2
    1794:	97ba                	add	a5,a5,a4
    1796:	0786                	slli	a5,a5,0x1
    1798:	873e                	mv	a4,a5
    179a:	fdc42783          	lw	a5,-36(s0)
    179e:	8f99                	sub	a5,a5,a4
    17a0:	fef42423          	sw	a5,-24(s0)
    17a4:	fe842783          	lw	a5,-24(s0)
    17a8:	0799                	addi	a5,a5,6
    17aa:	0047d713          	srli	a4,a5,0x4
    17ae:	fec42783          	lw	a5,-20(s0)
    17b2:	97ba                	add	a5,a5,a4
    17b4:	853e                	mv	a0,a5
    17b6:	5432                	lw	s0,44(sp)
    17b8:	6145                	addi	sp,sp,48
    17ba:	8082                	ret

000017bc <remu10>:
    17bc:	1101                	addi	sp,sp,-32
    17be:	ce22                	sw	s0,28(sp)
    17c0:	1000                	addi	s0,sp,32
    17c2:	fea42623          	sw	a0,-20(s0)
    17c6:	fec42703          	lw	a4,-20(s0)
    17ca:	1999a7b7          	lui	a5,0x1999a
    17ce:	99978793          	addi	a5,a5,-1639 # 19999999 <_stack_start+0x19891999>
    17d2:	02f70733          	mul	a4,a4,a5
    17d6:	fec42783          	lw	a5,-20(s0)
    17da:	8385                	srli	a5,a5,0x1
    17dc:	973e                	add	a4,a4,a5
    17de:	fec42783          	lw	a5,-20(s0)
    17e2:	838d                	srli	a5,a5,0x3
    17e4:	97ba                	add	a5,a5,a4
    17e6:	83f1                	srli	a5,a5,0x1c
    17e8:	fef42623          	sw	a5,-20(s0)
    17ec:	001027b7          	lui	a5,0x102
    17f0:	94078713          	addi	a4,a5,-1728 # 101940 <remu10_table>
    17f4:	fec42783          	lw	a5,-20(s0)
    17f8:	97ba                	add	a5,a5,a4
    17fa:	0007c783          	lbu	a5,0(a5)
    17fe:	853e                	mv	a0,a5
    1800:	4472                	lw	s0,28(sp)
    1802:	6105                	addi	sp,sp,32
    1804:	8082                	ret

00001806 <qprintchar>:
    1806:	1101                	addi	sp,sp,-32
    1808:	ce06                	sw	ra,28(sp)
    180a:	cc22                	sw	s0,24(sp)
    180c:	1000                	addi	s0,sp,32
    180e:	fea42623          	sw	a0,-20(s0)
    1812:	feb42423          	sw	a1,-24(s0)
    1816:	fec42783          	lw	a5,-20(s0)
    181a:	c39d                	beqz	a5,1840 <qprintchar+0x3a>
    181c:	fec42783          	lw	a5,-20(s0)
    1820:	439c                	lw	a5,0(a5)
    1822:	fe842703          	lw	a4,-24(s0)
    1826:	0ff77713          	andi	a4,a4,255
    182a:	00e78023          	sb	a4,0(a5)
    182e:	fec42783          	lw	a5,-20(s0)
    1832:	439c                	lw	a5,0(a5)
    1834:	00178713          	addi	a4,a5,1
    1838:	fec42783          	lw	a5,-20(s0)
    183c:	c398                	sw	a4,0(a5)
    183e:	a801                	j	184e <qprintchar+0x48>
    1840:	fe842783          	lw	a5,-24(s0)
    1844:	0ff7f793          	andi	a5,a5,255
    1848:	853e                	mv	a0,a5
    184a:	c08ff0ef          	jal	ra,c52 <putchar>
    184e:	0001                	nop
    1850:	40f2                	lw	ra,28(sp)
    1852:	4462                	lw	s0,24(sp)
    1854:	6105                	addi	sp,sp,32
    1856:	8082                	ret

00001858 <qprints>:
    1858:	7179                	addi	sp,sp,-48
    185a:	d606                	sw	ra,44(sp)
    185c:	d422                	sw	s0,40(sp)
    185e:	d226                	sw	s1,36(sp)
    1860:	d04a                	sw	s2,32(sp)
    1862:	ce4e                	sw	s3,28(sp)
    1864:	cc52                	sw	s4,24(sp)
    1866:	1800                	addi	s0,sp,48
    1868:	fca42e23          	sw	a0,-36(s0)
    186c:	fcb42c23          	sw	a1,-40(s0)
    1870:	fcc42a23          	sw	a2,-44(s0)
    1874:	fcd42823          	sw	a3,-48(s0)
    1878:	4481                	li	s1,0
    187a:	02000a13          	li	s4,32
    187e:	fd442783          	lw	a5,-44(s0)
    1882:	02f05e63          	blez	a5,18be <qprints+0x66>
    1886:	4901                	li	s2,0
    1888:	fd842983          	lw	s3,-40(s0)
    188c:	a019                	j	1892 <qprints+0x3a>
    188e:	0905                	addi	s2,s2,1
    1890:	0985                	addi	s3,s3,1
    1892:	0009c783          	lbu	a5,0(s3)
    1896:	ffe5                	bnez	a5,188e <qprints+0x36>
    1898:	fd442783          	lw	a5,-44(s0)
    189c:	00f94563          	blt	s2,a5,18a6 <qprints+0x4e>
    18a0:	fc042a23          	sw	zero,-44(s0)
    18a4:	a039                	j	18b2 <qprints+0x5a>
    18a6:	fd442783          	lw	a5,-44(s0)
    18aa:	412787b3          	sub	a5,a5,s2
    18ae:	fcf42a23          	sw	a5,-44(s0)
    18b2:	fd042783          	lw	a5,-48(s0)
    18b6:	8b89                	andi	a5,a5,2
    18b8:	c399                	beqz	a5,18be <qprints+0x66>
    18ba:	03000a13          	li	s4,48
    18be:	fd042783          	lw	a5,-48(s0)
    18c2:	8b85                	andi	a5,a5,1
    18c4:	ef9d                	bnez	a5,1902 <qprints+0xaa>
    18c6:	a819                	j	18dc <qprints+0x84>
    18c8:	85d2                	mv	a1,s4
    18ca:	fdc42503          	lw	a0,-36(s0)
    18ce:	3f25                	jal	1806 <qprintchar>
    18d0:	0485                	addi	s1,s1,1
    18d2:	fd442783          	lw	a5,-44(s0)
    18d6:	17fd                	addi	a5,a5,-1
    18d8:	fcf42a23          	sw	a5,-44(s0)
    18dc:	fd442783          	lw	a5,-44(s0)
    18e0:	fef044e3          	bgtz	a5,18c8 <qprints+0x70>
    18e4:	a839                	j	1902 <qprints+0xaa>
    18e6:	fd842783          	lw	a5,-40(s0)
    18ea:	0007c783          	lbu	a5,0(a5)
    18ee:	85be                	mv	a1,a5
    18f0:	fdc42503          	lw	a0,-36(s0)
    18f4:	3f09                	jal	1806 <qprintchar>
    18f6:	0485                	addi	s1,s1,1
    18f8:	fd842783          	lw	a5,-40(s0)
    18fc:	0785                	addi	a5,a5,1
    18fe:	fcf42c23          	sw	a5,-40(s0)
    1902:	fd842783          	lw	a5,-40(s0)
    1906:	0007c783          	lbu	a5,0(a5)
    190a:	fff1                	bnez	a5,18e6 <qprints+0x8e>
    190c:	a819                	j	1922 <qprints+0xca>
    190e:	85d2                	mv	a1,s4
    1910:	fdc42503          	lw	a0,-36(s0)
    1914:	3dcd                	jal	1806 <qprintchar>
    1916:	0485                	addi	s1,s1,1
    1918:	fd442783          	lw	a5,-44(s0)
    191c:	17fd                	addi	a5,a5,-1
    191e:	fcf42a23          	sw	a5,-44(s0)
    1922:	fd442783          	lw	a5,-44(s0)
    1926:	fef044e3          	bgtz	a5,190e <qprints+0xb6>
    192a:	87a6                	mv	a5,s1
    192c:	853e                	mv	a0,a5
    192e:	50b2                	lw	ra,44(sp)
    1930:	5422                	lw	s0,40(sp)
    1932:	5492                	lw	s1,36(sp)
    1934:	5902                	lw	s2,32(sp)
    1936:	49f2                	lw	s3,28(sp)
    1938:	4a62                	lw	s4,24(sp)
    193a:	6145                	addi	sp,sp,48
    193c:	8082                	ret

0000193e <qprinti>:
    193e:	7159                	addi	sp,sp,-112
    1940:	d686                	sw	ra,108(sp)
    1942:	d4a2                	sw	s0,104(sp)
    1944:	d2a6                	sw	s1,100(sp)
    1946:	d0ca                	sw	s2,96(sp)
    1948:	cece                	sw	s3,92(sp)
    194a:	1880                	addi	s0,sp,112
    194c:	faa42623          	sw	a0,-84(s0)
    1950:	fab42423          	sw	a1,-88(s0)
    1954:	fac42223          	sw	a2,-92(s0)
    1958:	fad42023          	sw	a3,-96(s0)
    195c:	f8e42e23          	sw	a4,-100(s0)
    1960:	f8f42c23          	sw	a5,-104(s0)
    1964:	87c2                	mv	a5,a6
    1966:	f8f40ba3          	sb	a5,-105(s0)
    196a:	4981                	li	s3,0
    196c:	4901                	li	s2,0
    196e:	fa842783          	lw	a5,-88(s0)
    1972:	fcf42e23          	sw	a5,-36(s0)
    1976:	fa842783          	lw	a5,-88(s0)
    197a:	e39d                	bnez	a5,19a0 <qprinti+0x62>
    197c:	03000793          	li	a5,48
    1980:	faf40c23          	sb	a5,-72(s0)
    1984:	fa040ca3          	sb	zero,-71(s0)
    1988:	fb840793          	addi	a5,s0,-72
    198c:	f9842683          	lw	a3,-104(s0)
    1990:	f9c42603          	lw	a2,-100(s0)
    1994:	85be                	mv	a1,a5
    1996:	fac42503          	lw	a0,-84(s0)
    199a:	3d7d                	jal	1858 <qprints>
    199c:	87aa                	mv	a5,a0
    199e:	a8fd                	j	1a9c <qprinti+0x15e>
    19a0:	fa042783          	lw	a5,-96(s0)
    19a4:	c38d                	beqz	a5,19c6 <qprinti+0x88>
    19a6:	fa442703          	lw	a4,-92(s0)
    19aa:	47a9                	li	a5,10
    19ac:	00f71d63          	bne	a4,a5,19c6 <qprinti+0x88>
    19b0:	fa842783          	lw	a5,-88(s0)
    19b4:	0007d963          	bgez	a5,19c6 <qprinti+0x88>
    19b8:	4985                	li	s3,1
    19ba:	fa842783          	lw	a5,-88(s0)
    19be:	40f007b3          	neg	a5,a5
    19c2:	fcf42e23          	sw	a5,-36(s0)
    19c6:	fb840493          	addi	s1,s0,-72
    19ca:	04fd                	addi	s1,s1,31
    19cc:	00048023          	sb	zero,0(s1)
    19d0:	fa442703          	lw	a4,-92(s0)
    19d4:	47c1                	li	a5,16
    19d6:	06f71c63          	bne	a4,a5,1a4e <qprinti+0x110>
    19da:	a0a1                	j	1a22 <qprinti+0xe4>
    19dc:	fdc42783          	lw	a5,-36(s0)
    19e0:	8bbd                	andi	a5,a5,15
    19e2:	fcf42c23          	sw	a5,-40(s0)
    19e6:	fd842703          	lw	a4,-40(s0)
    19ea:	47a5                	li	a5,9
    19ec:	00e7db63          	bge	a5,a4,1a02 <qprinti+0xc4>
    19f0:	f9744783          	lbu	a5,-105(s0)
    19f4:	fc678793          	addi	a5,a5,-58
    19f8:	fd842703          	lw	a4,-40(s0)
    19fc:	97ba                	add	a5,a5,a4
    19fe:	fcf42c23          	sw	a5,-40(s0)
    1a02:	fd842783          	lw	a5,-40(s0)
    1a06:	0ff7f793          	andi	a5,a5,255
    1a0a:	14fd                	addi	s1,s1,-1
    1a0c:	03078793          	addi	a5,a5,48
    1a10:	0ff7f793          	andi	a5,a5,255
    1a14:	00f48023          	sb	a5,0(s1)
    1a18:	fdc42783          	lw	a5,-36(s0)
    1a1c:	8391                	srli	a5,a5,0x4
    1a1e:	fcf42e23          	sw	a5,-36(s0)
    1a22:	fdc42783          	lw	a5,-36(s0)
    1a26:	fbdd                	bnez	a5,19dc <qprinti+0x9e>
    1a28:	a035                	j	1a54 <qprinti+0x116>
    1a2a:	fdc42503          	lw	a0,-36(s0)
    1a2e:	3379                	jal	17bc <remu10>
    1a30:	87aa                	mv	a5,a0
    1a32:	0ff7f793          	andi	a5,a5,255
    1a36:	14fd                	addi	s1,s1,-1
    1a38:	03078793          	addi	a5,a5,48
    1a3c:	0ff7f793          	andi	a5,a5,255
    1a40:	00f48023          	sb	a5,0(s1)
    1a44:	fdc42503          	lw	a0,-36(s0)
    1a48:	31f5                	jal	1734 <divu10>
    1a4a:	fca42e23          	sw	a0,-36(s0)
    1a4e:	fdc42783          	lw	a5,-36(s0)
    1a52:	ffe1                	bnez	a5,1a2a <qprinti+0xec>
    1a54:	02098a63          	beqz	s3,1a88 <qprinti+0x14a>
    1a58:	f9c42783          	lw	a5,-100(s0)
    1a5c:	c38d                	beqz	a5,1a7e <qprinti+0x140>
    1a5e:	f9842783          	lw	a5,-104(s0)
    1a62:	8b89                	andi	a5,a5,2
    1a64:	cf89                	beqz	a5,1a7e <qprinti+0x140>
    1a66:	02d00593          	li	a1,45
    1a6a:	fac42503          	lw	a0,-84(s0)
    1a6e:	3b61                	jal	1806 <qprintchar>
    1a70:	0905                	addi	s2,s2,1
    1a72:	f9c42783          	lw	a5,-100(s0)
    1a76:	17fd                	addi	a5,a5,-1
    1a78:	f8f42e23          	sw	a5,-100(s0)
    1a7c:	a031                	j	1a88 <qprinti+0x14a>
    1a7e:	14fd                	addi	s1,s1,-1
    1a80:	02d00793          	li	a5,45
    1a84:	00f48023          	sb	a5,0(s1)
    1a88:	f9842683          	lw	a3,-104(s0)
    1a8c:	f9c42603          	lw	a2,-100(s0)
    1a90:	85a6                	mv	a1,s1
    1a92:	fac42503          	lw	a0,-84(s0)
    1a96:	33c9                	jal	1858 <qprints>
    1a98:	87aa                	mv	a5,a0
    1a9a:	97ca                	add	a5,a5,s2
    1a9c:	853e                	mv	a0,a5
    1a9e:	50b6                	lw	ra,108(sp)
    1aa0:	5426                	lw	s0,104(sp)
    1aa2:	5496                	lw	s1,100(sp)
    1aa4:	5906                	lw	s2,96(sp)
    1aa6:	49f6                	lw	s3,92(sp)
    1aa8:	6165                	addi	sp,sp,112
    1aaa:	8082                	ret

00001aac <qprint>:
    1aac:	7139                	addi	sp,sp,-64
    1aae:	de06                	sw	ra,60(sp)
    1ab0:	dc22                	sw	s0,56(sp)
    1ab2:	da26                	sw	s1,52(sp)
    1ab4:	d84a                	sw	s2,48(sp)
    1ab6:	d64e                	sw	s3,44(sp)
    1ab8:	0080                	addi	s0,sp,64
    1aba:	fca42623          	sw	a0,-52(s0)
    1abe:	fcb42423          	sw	a1,-56(s0)
    1ac2:	fcc42223          	sw	a2,-60(s0)
    1ac6:	4481                	li	s1,0
    1ac8:	ac3d                	j	1d06 <qprint+0x25a>
    1aca:	fc842783          	lw	a5,-56(s0)
    1ace:	0007c703          	lbu	a4,0(a5)
    1ad2:	02500793          	li	a5,37
    1ad6:	20f71763          	bne	a4,a5,1ce4 <qprint+0x238>
    1ada:	fc842783          	lw	a5,-56(s0)
    1ade:	0785                	addi	a5,a5,1
    1ae0:	fcf42423          	sw	a5,-56(s0)
    1ae4:	4981                	li	s3,0
    1ae6:	894e                	mv	s2,s3
    1ae8:	fc842783          	lw	a5,-56(s0)
    1aec:	0007c783          	lbu	a5,0(a5)
    1af0:	22078263          	beqz	a5,1d14 <qprint+0x268>
    1af4:	fc842783          	lw	a5,-56(s0)
    1af8:	0007c703          	lbu	a4,0(a5)
    1afc:	02500793          	li	a5,37
    1b00:	1ef70463          	beq	a4,a5,1ce8 <qprint+0x23c>
    1b04:	fc842783          	lw	a5,-56(s0)
    1b08:	0007c703          	lbu	a4,0(a5)
    1b0c:	02d00793          	li	a5,45
    1b10:	02f71063          	bne	a4,a5,1b30 <qprint+0x84>
    1b14:	fc842783          	lw	a5,-56(s0)
    1b18:	0785                	addi	a5,a5,1
    1b1a:	fcf42423          	sw	a5,-56(s0)
    1b1e:	4985                	li	s3,1
    1b20:	a801                	j	1b30 <qprint+0x84>
    1b22:	fc842783          	lw	a5,-56(s0)
    1b26:	0785                	addi	a5,a5,1
    1b28:	fcf42423          	sw	a5,-56(s0)
    1b2c:	0029e993          	ori	s3,s3,2
    1b30:	fc842783          	lw	a5,-56(s0)
    1b34:	0007c703          	lbu	a4,0(a5)
    1b38:	03000793          	li	a5,48
    1b3c:	fef703e3          	beq	a4,a5,1b22 <qprint+0x76>
    1b40:	a015                	j	1b64 <qprint+0xb8>
    1b42:	87ca                	mv	a5,s2
    1b44:	078a                	slli	a5,a5,0x2
    1b46:	97ca                	add	a5,a5,s2
    1b48:	0786                	slli	a5,a5,0x1
    1b4a:	893e                	mv	s2,a5
    1b4c:	fc842783          	lw	a5,-56(s0)
    1b50:	0007c783          	lbu	a5,0(a5)
    1b54:	fd078793          	addi	a5,a5,-48
    1b58:	993e                	add	s2,s2,a5
    1b5a:	fc842783          	lw	a5,-56(s0)
    1b5e:	0785                	addi	a5,a5,1
    1b60:	fcf42423          	sw	a5,-56(s0)
    1b64:	fc842783          	lw	a5,-56(s0)
    1b68:	0007c703          	lbu	a4,0(a5)
    1b6c:	02f00793          	li	a5,47
    1b70:	00e7fa63          	bgeu	a5,a4,1b84 <qprint+0xd8>
    1b74:	fc842783          	lw	a5,-56(s0)
    1b78:	0007c703          	lbu	a4,0(a5)
    1b7c:	03900793          	li	a5,57
    1b80:	fce7f1e3          	bgeu	a5,a4,1b42 <qprint+0x96>
    1b84:	fc842783          	lw	a5,-56(s0)
    1b88:	0007c703          	lbu	a4,0(a5)
    1b8c:	07300793          	li	a5,115
    1b90:	02f71b63          	bne	a4,a5,1bc6 <qprint+0x11a>
    1b94:	fc442783          	lw	a5,-60(s0)
    1b98:	00478713          	addi	a4,a5,4
    1b9c:	fce42223          	sw	a4,-60(s0)
    1ba0:	0007a083          	lw	ra,0(a5)
    1ba4:	00008463          	beqz	ra,1bac <qprint+0x100>
    1ba8:	8786                	mv	a5,ra
    1baa:	a029                	j	1bb4 <qprint+0x108>
    1bac:	001007b7          	lui	a5,0x100
    1bb0:	1e878793          	addi	a5,a5,488 # 1001e8 <__init_array_end+0x1e8>
    1bb4:	86ce                	mv	a3,s3
    1bb6:	864a                	mv	a2,s2
    1bb8:	85be                	mv	a1,a5
    1bba:	fcc42503          	lw	a0,-52(s0)
    1bbe:	3969                	jal	1858 <qprints>
    1bc0:	87aa                	mv	a5,a0
    1bc2:	94be                	add	s1,s1,a5
    1bc4:	aa25                	j	1cfc <qprint+0x250>
    1bc6:	fc842783          	lw	a5,-56(s0)
    1bca:	0007c703          	lbu	a4,0(a5)
    1bce:	06400793          	li	a5,100
    1bd2:	02f71563          	bne	a4,a5,1bfc <qprint+0x150>
    1bd6:	fc442783          	lw	a5,-60(s0)
    1bda:	00478713          	addi	a4,a5,4
    1bde:	fce42223          	sw	a4,-60(s0)
    1be2:	438c                	lw	a1,0(a5)
    1be4:	06100813          	li	a6,97
    1be8:	87ce                	mv	a5,s3
    1bea:	874a                	mv	a4,s2
    1bec:	4685                	li	a3,1
    1bee:	4629                	li	a2,10
    1bf0:	fcc42503          	lw	a0,-52(s0)
    1bf4:	33a9                	jal	193e <qprinti>
    1bf6:	87aa                	mv	a5,a0
    1bf8:	94be                	add	s1,s1,a5
    1bfa:	a209                	j	1cfc <qprint+0x250>
    1bfc:	fc842783          	lw	a5,-56(s0)
    1c00:	0007c703          	lbu	a4,0(a5)
    1c04:	07500793          	li	a5,117
    1c08:	02f71663          	bne	a4,a5,1c34 <qprint+0x188>
    1c0c:	fc442783          	lw	a5,-60(s0)
    1c10:	00478713          	addi	a4,a5,4
    1c14:	fce42223          	sw	a4,-60(s0)
    1c18:	439c                	lw	a5,0(a5)
    1c1a:	85be                	mv	a1,a5
    1c1c:	06100813          	li	a6,97
    1c20:	87ce                	mv	a5,s3
    1c22:	874a                	mv	a4,s2
    1c24:	4681                	li	a3,0
    1c26:	4629                	li	a2,10
    1c28:	fcc42503          	lw	a0,-52(s0)
    1c2c:	3b09                	jal	193e <qprinti>
    1c2e:	87aa                	mv	a5,a0
    1c30:	94be                	add	s1,s1,a5
    1c32:	a0e9                	j	1cfc <qprint+0x250>
    1c34:	fc842783          	lw	a5,-56(s0)
    1c38:	0007c703          	lbu	a4,0(a5)
    1c3c:	07800793          	li	a5,120
    1c40:	02f71663          	bne	a4,a5,1c6c <qprint+0x1c0>
    1c44:	fc442783          	lw	a5,-60(s0)
    1c48:	00478713          	addi	a4,a5,4
    1c4c:	fce42223          	sw	a4,-60(s0)
    1c50:	439c                	lw	a5,0(a5)
    1c52:	85be                	mv	a1,a5
    1c54:	06100813          	li	a6,97
    1c58:	87ce                	mv	a5,s3
    1c5a:	874a                	mv	a4,s2
    1c5c:	4681                	li	a3,0
    1c5e:	4641                	li	a2,16
    1c60:	fcc42503          	lw	a0,-52(s0)
    1c64:	39e9                	jal	193e <qprinti>
    1c66:	87aa                	mv	a5,a0
    1c68:	94be                	add	s1,s1,a5
    1c6a:	a849                	j	1cfc <qprint+0x250>
    1c6c:	fc842783          	lw	a5,-56(s0)
    1c70:	0007c703          	lbu	a4,0(a5)
    1c74:	05800793          	li	a5,88
    1c78:	02f71663          	bne	a4,a5,1ca4 <qprint+0x1f8>
    1c7c:	fc442783          	lw	a5,-60(s0)
    1c80:	00478713          	addi	a4,a5,4
    1c84:	fce42223          	sw	a4,-60(s0)
    1c88:	439c                	lw	a5,0(a5)
    1c8a:	85be                	mv	a1,a5
    1c8c:	04100813          	li	a6,65
    1c90:	87ce                	mv	a5,s3
    1c92:	874a                	mv	a4,s2
    1c94:	4681                	li	a3,0
    1c96:	4641                	li	a2,16
    1c98:	fcc42503          	lw	a0,-52(s0)
    1c9c:	314d                	jal	193e <qprinti>
    1c9e:	87aa                	mv	a5,a0
    1ca0:	94be                	add	s1,s1,a5
    1ca2:	a8a9                	j	1cfc <qprint+0x250>
    1ca4:	fc842783          	lw	a5,-56(s0)
    1ca8:	0007c703          	lbu	a4,0(a5)
    1cac:	06300793          	li	a5,99
    1cb0:	04f71663          	bne	a4,a5,1cfc <qprint+0x250>
    1cb4:	fc442783          	lw	a5,-60(s0)
    1cb8:	00478713          	addi	a4,a5,4
    1cbc:	fce42223          	sw	a4,-60(s0)
    1cc0:	439c                	lw	a5,0(a5)
    1cc2:	0ff7f793          	andi	a5,a5,255
    1cc6:	fcf40e23          	sb	a5,-36(s0)
    1cca:	fc040ea3          	sb	zero,-35(s0)
    1cce:	fdc40793          	addi	a5,s0,-36
    1cd2:	86ce                	mv	a3,s3
    1cd4:	864a                	mv	a2,s2
    1cd6:	85be                	mv	a1,a5
    1cd8:	fcc42503          	lw	a0,-52(s0)
    1cdc:	3eb5                	jal	1858 <qprints>
    1cde:	87aa                	mv	a5,a0
    1ce0:	94be                	add	s1,s1,a5
    1ce2:	a829                	j	1cfc <qprint+0x250>
    1ce4:	0001                	nop
    1ce6:	a011                	j	1cea <qprint+0x23e>
    1ce8:	0001                	nop
    1cea:	fc842783          	lw	a5,-56(s0)
    1cee:	0007c783          	lbu	a5,0(a5)
    1cf2:	85be                	mv	a1,a5
    1cf4:	fcc42503          	lw	a0,-52(s0)
    1cf8:	3639                	jal	1806 <qprintchar>
    1cfa:	0485                	addi	s1,s1,1
    1cfc:	fc842783          	lw	a5,-56(s0)
    1d00:	0785                	addi	a5,a5,1
    1d02:	fcf42423          	sw	a5,-56(s0)
    1d06:	fc842783          	lw	a5,-56(s0)
    1d0a:	0007c783          	lbu	a5,0(a5)
    1d0e:	da079ee3          	bnez	a5,1aca <qprint+0x1e>
    1d12:	a011                	j	1d16 <qprint+0x26a>
    1d14:	0001                	nop
    1d16:	fcc42783          	lw	a5,-52(s0)
    1d1a:	c791                	beqz	a5,1d26 <qprint+0x27a>
    1d1c:	fcc42783          	lw	a5,-52(s0)
    1d20:	439c                	lw	a5,0(a5)
    1d22:	00078023          	sb	zero,0(a5)
    1d26:	87a6                	mv	a5,s1
    1d28:	853e                	mv	a0,a5
    1d2a:	50f2                	lw	ra,60(sp)
    1d2c:	5462                	lw	s0,56(sp)
    1d2e:	54d2                	lw	s1,52(sp)
    1d30:	5942                	lw	s2,48(sp)
    1d32:	59b2                	lw	s3,44(sp)
    1d34:	6121                	addi	sp,sp,64
    1d36:	8082                	ret

00001d38 <printf>:
    1d38:	715d                	addi	sp,sp,-80
    1d3a:	d606                	sw	ra,44(sp)
    1d3c:	d422                	sw	s0,40(sp)
    1d3e:	1800                	addi	s0,sp,48
    1d40:	fca42e23          	sw	a0,-36(s0)
    1d44:	c04c                	sw	a1,4(s0)
    1d46:	c410                	sw	a2,8(s0)
    1d48:	c454                	sw	a3,12(s0)
    1d4a:	c818                	sw	a4,16(s0)
    1d4c:	c85c                	sw	a5,20(s0)
    1d4e:	01042c23          	sw	a6,24(s0)
    1d52:	01142e23          	sw	a7,28(s0)
    1d56:	02040793          	addi	a5,s0,32
    1d5a:	fcf42c23          	sw	a5,-40(s0)
    1d5e:	fd842783          	lw	a5,-40(s0)
    1d62:	1791                	addi	a5,a5,-28
    1d64:	fef42423          	sw	a5,-24(s0)
    1d68:	fe842783          	lw	a5,-24(s0)
    1d6c:	863e                	mv	a2,a5
    1d6e:	fdc42583          	lw	a1,-36(s0)
    1d72:	4501                	li	a0,0
    1d74:	3b25                	jal	1aac <qprint>
    1d76:	fea42623          	sw	a0,-20(s0)
    1d7a:	fec42783          	lw	a5,-20(s0)
    1d7e:	853e                	mv	a0,a5
    1d80:	50b2                	lw	ra,44(sp)
    1d82:	5422                	lw	s0,40(sp)
    1d84:	6161                	addi	sp,sp,80
    1d86:	8082                	ret

00001d88 <sprintf>:
    1d88:	715d                	addi	sp,sp,-80
    1d8a:	d606                	sw	ra,44(sp)
    1d8c:	d422                	sw	s0,40(sp)
    1d8e:	1800                	addi	s0,sp,48
    1d90:	fca42e23          	sw	a0,-36(s0)
    1d94:	fcb42c23          	sw	a1,-40(s0)
    1d98:	c410                	sw	a2,8(s0)
    1d9a:	c454                	sw	a3,12(s0)
    1d9c:	c818                	sw	a4,16(s0)
    1d9e:	c85c                	sw	a5,20(s0)
    1da0:	01042c23          	sw	a6,24(s0)
    1da4:	01142e23          	sw	a7,28(s0)
    1da8:	02040793          	addi	a5,s0,32
    1dac:	fcf42a23          	sw	a5,-44(s0)
    1db0:	fd442783          	lw	a5,-44(s0)
    1db4:	17a1                	addi	a5,a5,-24
    1db6:	fef42423          	sw	a5,-24(s0)
    1dba:	fe842703          	lw	a4,-24(s0)
    1dbe:	fdc40793          	addi	a5,s0,-36
    1dc2:	863a                	mv	a2,a4
    1dc4:	fd842583          	lw	a1,-40(s0)
    1dc8:	853e                	mv	a0,a5
    1dca:	31cd                	jal	1aac <qprint>
    1dcc:	fea42623          	sw	a0,-20(s0)
    1dd0:	fec42783          	lw	a5,-20(s0)
    1dd4:	853e                	mv	a0,a5
    1dd6:	50b2                	lw	ra,44(sp)
    1dd8:	5422                	lw	s0,40(sp)
    1dda:	6161                	addi	sp,sp,80
    1ddc:	8082                	ret

00001dde <vsprintf>:
    1dde:	1101                	addi	sp,sp,-32
    1de0:	ce06                	sw	ra,28(sp)
    1de2:	cc22                	sw	s0,24(sp)
    1de4:	1000                	addi	s0,sp,32
    1de6:	fea42623          	sw	a0,-20(s0)
    1dea:	feb42423          	sw	a1,-24(s0)
    1dee:	fec42223          	sw	a2,-28(s0)
    1df2:	fec40793          	addi	a5,s0,-20
    1df6:	fe442603          	lw	a2,-28(s0)
    1dfa:	fe842583          	lw	a1,-24(s0)
    1dfe:	853e                	mv	a0,a5
    1e00:	3175                	jal	1aac <qprint>
    1e02:	87aa                	mv	a5,a0
    1e04:	853e                	mv	a0,a5
    1e06:	40f2                	lw	ra,28(sp)
    1e08:	4462                	lw	s0,24(sp)
    1e0a:	6105                	addi	sp,sp,32
    1e0c:	8082                	ret

00001e0e <puts>:
    1e0e:	7179                	addi	sp,sp,-48
    1e10:	d606                	sw	ra,44(sp)
    1e12:	d422                	sw	s0,40(sp)
    1e14:	1800                	addi	s0,sp,48
    1e16:	fca42e23          	sw	a0,-36(s0)
    1e1a:	fe042623          	sw	zero,-20(s0)
    1e1e:	a005                	j	1e3e <puts+0x30>
    1e20:	fec42783          	lw	a5,-20(s0)
    1e24:	00178713          	addi	a4,a5,1
    1e28:	fee42623          	sw	a4,-20(s0)
    1e2c:	873e                	mv	a4,a5
    1e2e:	fdc42783          	lw	a5,-36(s0)
    1e32:	97ba                	add	a5,a5,a4
    1e34:	0007c783          	lbu	a5,0(a5)
    1e38:	853e                	mv	a0,a5
    1e3a:	e19fe0ef          	jal	ra,c52 <putchar>
    1e3e:	fec42783          	lw	a5,-20(s0)
    1e42:	fdc42703          	lw	a4,-36(s0)
    1e46:	97ba                	add	a5,a5,a4
    1e48:	0007c783          	lbu	a5,0(a5)
    1e4c:	fbf1                	bnez	a5,1e20 <puts+0x12>
    1e4e:	4529                	li	a0,10
    1e50:	e03fe0ef          	jal	ra,c52 <putchar>
    1e54:	fec42783          	lw	a5,-20(s0)
    1e58:	853e                	mv	a0,a5
    1e5a:	50b2                	lw	ra,44(sp)
    1e5c:	5422                	lw	s0,40(sp)
    1e5e:	6145                	addi	sp,sp,48
    1e60:	8082                	ret

00001e62 <strcmp>:
    1e62:	7179                	addi	sp,sp,-48
    1e64:	d622                	sw	s0,44(sp)
    1e66:	1800                	addi	s0,sp,48
    1e68:	fca42e23          	sw	a0,-36(s0)
    1e6c:	fcb42c23          	sw	a1,-40(s0)
    1e70:	fdc42703          	lw	a4,-36(s0)
    1e74:	fd842783          	lw	a5,-40(s0)
    1e78:	8fd9                	or	a5,a5,a4
    1e7a:	8b8d                	andi	a5,a5,3
    1e7c:	e7c9                	bnez	a5,1f06 <strcmp+0xa4>
    1e7e:	fdc42783          	lw	a5,-36(s0)
    1e82:	fef42623          	sw	a5,-20(s0)
    1e86:	fd842783          	lw	a5,-40(s0)
    1e8a:	fef42423          	sw	a5,-24(s0)
    1e8e:	a089                	j	1ed0 <strcmp+0x6e>
    1e90:	fec42783          	lw	a5,-20(s0)
    1e94:	4398                	lw	a4,0(a5)
    1e96:	feff07b7          	lui	a5,0xfeff0
    1e9a:	eff78793          	addi	a5,a5,-257 # fefefeff <_stack_start+0xfeee7eff>
    1e9e:	973e                	add	a4,a4,a5
    1ea0:	fec42783          	lw	a5,-20(s0)
    1ea4:	439c                	lw	a5,0(a5)
    1ea6:	fff7c793          	not	a5,a5
    1eaa:	8f7d                	and	a4,a4,a5
    1eac:	808087b7          	lui	a5,0x80808
    1eb0:	08078793          	addi	a5,a5,128 # 80808080 <_stack_start+0x80700080>
    1eb4:	8ff9                	and	a5,a5,a4
    1eb6:	c399                	beqz	a5,1ebc <strcmp+0x5a>
    1eb8:	4781                	li	a5,0
    1eba:	a041                	j	1f3a <strcmp+0xd8>
    1ebc:	fec42783          	lw	a5,-20(s0)
    1ec0:	0791                	addi	a5,a5,4
    1ec2:	fef42623          	sw	a5,-20(s0)
    1ec6:	fe842783          	lw	a5,-24(s0)
    1eca:	0791                	addi	a5,a5,4
    1ecc:	fef42423          	sw	a5,-24(s0)
    1ed0:	fec42783          	lw	a5,-20(s0)
    1ed4:	4398                	lw	a4,0(a5)
    1ed6:	fe842783          	lw	a5,-24(s0)
    1eda:	439c                	lw	a5,0(a5)
    1edc:	faf70ae3          	beq	a4,a5,1e90 <strcmp+0x2e>
    1ee0:	fec42783          	lw	a5,-20(s0)
    1ee4:	fcf42e23          	sw	a5,-36(s0)
    1ee8:	fe842783          	lw	a5,-24(s0)
    1eec:	fcf42c23          	sw	a5,-40(s0)
    1ef0:	a819                	j	1f06 <strcmp+0xa4>
    1ef2:	fdc42783          	lw	a5,-36(s0)
    1ef6:	0785                	addi	a5,a5,1
    1ef8:	fcf42e23          	sw	a5,-36(s0)
    1efc:	fd842783          	lw	a5,-40(s0)
    1f00:	0785                	addi	a5,a5,1
    1f02:	fcf42c23          	sw	a5,-40(s0)
    1f06:	fdc42783          	lw	a5,-36(s0)
    1f0a:	0007c783          	lbu	a5,0(a5)
    1f0e:	cb99                	beqz	a5,1f24 <strcmp+0xc2>
    1f10:	fdc42783          	lw	a5,-36(s0)
    1f14:	0007c703          	lbu	a4,0(a5)
    1f18:	fd842783          	lw	a5,-40(s0)
    1f1c:	0007c783          	lbu	a5,0(a5)
    1f20:	fcf709e3          	beq	a4,a5,1ef2 <strcmp+0x90>
    1f24:	fdc42783          	lw	a5,-36(s0)
    1f28:	0007c783          	lbu	a5,0(a5)
    1f2c:	873e                	mv	a4,a5
    1f2e:	fd842783          	lw	a5,-40(s0)
    1f32:	0007c783          	lbu	a5,0(a5)
    1f36:	40f707b3          	sub	a5,a4,a5
    1f3a:	853e                	mv	a0,a5
    1f3c:	5432                	lw	s0,44(sp)
    1f3e:	6145                	addi	sp,sp,48
    1f40:	8082                	ret

00001f42 <memset>:
    1f42:	7179                	addi	sp,sp,-48
    1f44:	d622                	sw	s0,44(sp)
    1f46:	1800                	addi	s0,sp,48
    1f48:	fca42e23          	sw	a0,-36(s0)
    1f4c:	fcb42c23          	sw	a1,-40(s0)
    1f50:	fcc42a23          	sw	a2,-44(s0)
    1f54:	fdc42783          	lw	a5,-36(s0)
    1f58:	fef42623          	sw	a5,-20(s0)
    1f5c:	a015                	j	1f80 <memset+0x3e>
    1f5e:	fec42783          	lw	a5,-20(s0)
    1f62:	00178713          	addi	a4,a5,1
    1f66:	fee42623          	sw	a4,-20(s0)
    1f6a:	fd842703          	lw	a4,-40(s0)
    1f6e:	0ff77713          	andi	a4,a4,255
    1f72:	00e78023          	sb	a4,0(a5)
    1f76:	fd442783          	lw	a5,-44(s0)
    1f7a:	17fd                	addi	a5,a5,-1
    1f7c:	fcf42a23          	sw	a5,-44(s0)
    1f80:	fd442783          	lw	a5,-44(s0)
    1f84:	ffe9                	bnez	a5,1f5e <memset+0x1c>
    1f86:	fdc42783          	lw	a5,-36(s0)
    1f8a:	853e                	mv	a0,a5
    1f8c:	5432                	lw	s0,44(sp)
    1f8e:	6145                	addi	sp,sp,48
    1f90:	8082                	ret

00001f92 <strcpy>:
    1f92:	7179                	addi	sp,sp,-48
    1f94:	d622                	sw	s0,44(sp)
    1f96:	1800                	addi	s0,sp,48
    1f98:	fca42e23          	sw	a0,-36(s0)
    1f9c:	fcb42c23          	sw	a1,-40(s0)
    1fa0:	fdc42783          	lw	a5,-36(s0)
    1fa4:	fef42623          	sw	a5,-20(s0)
    1fa8:	fd842783          	lw	a5,-40(s0)
    1fac:	fef42423          	sw	a5,-24(s0)
    1fb0:	a01d                	j	1fd6 <strcpy+0x44>
    1fb2:	fe842783          	lw	a5,-24(s0)
    1fb6:	0007c703          	lbu	a4,0(a5)
    1fba:	fec42783          	lw	a5,-20(s0)
    1fbe:	00e78023          	sb	a4,0(a5)
    1fc2:	fec42783          	lw	a5,-20(s0)
    1fc6:	0785                	addi	a5,a5,1
    1fc8:	fef42623          	sw	a5,-20(s0)
    1fcc:	fe842783          	lw	a5,-24(s0)
    1fd0:	0785                	addi	a5,a5,1
    1fd2:	fef42423          	sw	a5,-24(s0)
    1fd6:	fe842783          	lw	a5,-24(s0)
    1fda:	0007c783          	lbu	a5,0(a5)
    1fde:	fbf1                	bnez	a5,1fb2 <strcpy+0x20>
    1fe0:	fdc42783          	lw	a5,-36(s0)
    1fe4:	853e                	mv	a0,a5
    1fe6:	5432                	lw	s0,44(sp)
    1fe8:	6145                	addi	sp,sp,48
    1fea:	8082                	ret

00001fec <strlen>:
    1fec:	7179                	addi	sp,sp,-48
    1fee:	d622                	sw	s0,44(sp)
    1ff0:	1800                	addi	s0,sp,48
    1ff2:	fca42e23          	sw	a0,-36(s0)
    1ff6:	fdc42783          	lw	a5,-36(s0)
    1ffa:	fef42623          	sw	a5,-20(s0)
    1ffe:	fe042423          	sw	zero,-24(s0)
    2002:	fec42783          	lw	a5,-20(s0)
    2006:	eb81                	bnez	a5,2016 <_stack_len+0x16>
    2008:	4781                	li	a5,0
    200a:	a00d                	j	202c <_stack_len+0x2c>
    200c:	fe842783          	lw	a5,-24(s0)
    2010:	0785                	addi	a5,a5,1
    2012:	fef42423          	sw	a5,-24(s0)
    2016:	fec42783          	lw	a5,-20(s0)
    201a:	00178713          	addi	a4,a5,1
    201e:	fee42623          	sw	a4,-20(s0)
    2022:	0007c783          	lbu	a5,0(a5)
    2026:	f3fd                	bnez	a5,200c <_stack_len+0xc>
    2028:	fe842783          	lw	a5,-24(s0)
    202c:	853e                	mv	a0,a5
    202e:	5432                	lw	s0,44(sp)
    2030:	6145                	addi	sp,sp,48
    2032:	8082                	ret

00002034 <ISR_I2C>:
    2034:	1141                	addi	sp,sp,-16
    2036:	c622                	sw	s0,12(sp)
    2038:	0800                	addi	s0,sp,16
    203a:	a001                	j	203a <ISR_I2C+0x6>

0000203c <ISR_UART>:
    203c:	1141                	addi	sp,sp,-16
    203e:	c622                	sw	s0,12(sp)
    2040:	0800                	addi	s0,sp,16
    2042:	a001                	j	2042 <ISR_UART+0x6>

00002044 <ISR_GPIO>:
    2044:	1141                	addi	sp,sp,-16
    2046:	c622                	sw	s0,12(sp)
    2048:	0800                	addi	s0,sp,16
    204a:	a001                	j	204a <ISR_GPIO+0x6>

0000204c <ISR_SPIM0>:
    204c:	1141                	addi	sp,sp,-16
    204e:	c622                	sw	s0,12(sp)
    2050:	0800                	addi	s0,sp,16
    2052:	a001                	j	2052 <ISR_SPIM0+0x6>

00002054 <ISR_SPIM1>:
    2054:	1141                	addi	sp,sp,-16
    2056:	c622                	sw	s0,12(sp)
    2058:	0800                	addi	s0,sp,16
    205a:	a001                	j	205a <ISR_SPIM1+0x6>

0000205c <ISR_TA_OVF>:
    205c:	1141                	addi	sp,sp,-16
    205e:	c622                	sw	s0,12(sp)
    2060:	0800                	addi	s0,sp,16
    2062:	a001                	j	2062 <ISR_TA_OVF+0x6>

00002064 <ISR_TA_CMP>:
    2064:	1141                	addi	sp,sp,-16
    2066:	c622                	sw	s0,12(sp)
    2068:	0800                	addi	s0,sp,16
    206a:	a001                	j	206a <ISR_TA_CMP+0x6>

0000206c <ISR_TB_OVF>:
    206c:	1141                	addi	sp,sp,-16
    206e:	c622                	sw	s0,12(sp)
    2070:	0800                	addi	s0,sp,16
    2072:	a001                	j	2072 <ISR_TB_OVF+0x6>

00002074 <ISR_TB_CMP>:
    2074:	1141                	addi	sp,sp,-16
    2076:	c622                	sw	s0,12(sp)
    2078:	0800                	addi	s0,sp,16
    207a:	a001                	j	207a <ISR_TB_CMP+0x6>

0000207c <default_exception_handler_c>:
    207c:	1141                	addi	sp,sp,-16
    207e:	c622                	sw	s0,12(sp)
    2080:	0800                	addi	s0,sp,16
    2082:	a001                	j	2082 <default_exception_handler_c+0x6>

00002084 <illegal_insn_handler_c>:
    2084:	1141                	addi	sp,sp,-16
    2086:	c622                	sw	s0,12(sp)
    2088:	0800                	addi	s0,sp,16
    208a:	a001                	j	208a <illegal_insn_handler_c+0x6>

0000208c <ecall_insn_handler_c>:
    208c:	1141                	addi	sp,sp,-16
    208e:	c622                	sw	s0,12(sp)
    2090:	0800                	addi	s0,sp,16
    2092:	a001                	j	2092 <ecall_insn_handler_c+0x6>

00002094 <adxl362_basic_init>:
    2094:	1101                	addi	sp,sp,-32
    2096:	ce06                	sw	ra,28(sp)
    2098:	cc22                	sw	s0,24(sp)
    209a:	1000                	addi	s0,sp,32
    209c:	42400613          	li	a2,1060
    20a0:	4581                	li	a1,0
    20a2:	001027b7          	lui	a5,0x102
    20a6:	d8878513          	addi	a0,a5,-632 # 101d88 <gs_handle>
    20aa:	3d61                	jal	1f42 <memset>
    20ac:	001027b7          	lui	a5,0x102
    20b0:	d8878793          	addi	a5,a5,-632 # 101d88 <gs_handle>
    20b4:	670d                	lui	a4,0x3
    20b6:	a5470713          	addi	a4,a4,-1452 # 2a54 <adxl362_interface_spi_init>
    20ba:	c398                	sw	a4,0(a5)
    20bc:	001027b7          	lui	a5,0x102
    20c0:	d8878793          	addi	a5,a5,-632 # 101d88 <gs_handle>
    20c4:	670d                	lui	a4,0x3
    20c6:	a8470713          	addi	a4,a4,-1404 # 2a84 <adxl362_interface_spi_deinit>
    20ca:	c3d8                	sw	a4,4(a5)
    20cc:	001027b7          	lui	a5,0x102
    20d0:	d8878793          	addi	a5,a5,-632 # 101d88 <gs_handle>
    20d4:	670d                	lui	a4,0x3
    20d6:	a9470713          	addi	a4,a4,-1388 # 2a94 <adxl362_interface_spi_read>
    20da:	c798                	sw	a4,8(a5)
    20dc:	001027b7          	lui	a5,0x102
    20e0:	d8878793          	addi	a5,a5,-632 # 101d88 <gs_handle>
    20e4:	670d                	lui	a4,0x3
    20e6:	bba70713          	addi	a4,a4,-1094 # 2bba <adxl362_interface_spi_read_address16>
    20ea:	c7d8                	sw	a4,12(a5)
    20ec:	001027b7          	lui	a5,0x102
    20f0:	d8878793          	addi	a5,a5,-632 # 101d88 <gs_handle>
    20f4:	670d                	lui	a4,0x3
    20f6:	ce070713          	addi	a4,a4,-800 # 2ce0 <adxl362_interface_spi_write_address16>
    20fa:	cb98                	sw	a4,16(a5)
    20fc:	001027b7          	lui	a5,0x102
    2100:	d8878793          	addi	a5,a5,-632 # 101d88 <gs_handle>
    2104:	670d                	lui	a4,0x3
    2106:	e4e70713          	addi	a4,a4,-434 # 2e4e <adxl362_interface_delay_ms>
    210a:	cf98                	sw	a4,24(a5)
    210c:	001027b7          	lui	a5,0x102
    2110:	d8878793          	addi	a5,a5,-632 # 101d88 <gs_handle>
    2114:	670d                	lui	a4,0x3
    2116:	e8470713          	addi	a4,a4,-380 # 2e84 <adxl362_interface_debug_print>
    211a:	cfd8                	sw	a4,28(a5)
    211c:	001027b7          	lui	a5,0x102
    2120:	d8878793          	addi	a5,a5,-632 # 101d88 <gs_handle>
    2124:	670d                	lui	a4,0x3
    2126:	f1670713          	addi	a4,a4,-234 # 2f16 <adxl362_interface_receive_callback>
    212a:	cbd8                	sw	a4,20(a5)
    212c:	001027b7          	lui	a5,0x102
    2130:	d8878513          	addi	a0,a5,-632 # 101d88 <gs_handle>
    2134:	00e010ef          	jal	ra,3142 <adxl362_init>
    2138:	87aa                	mv	a5,a0
    213a:	fef407a3          	sb	a5,-17(s0)
    213e:	fef44783          	lbu	a5,-17(s0)
    2142:	cb91                	beqz	a5,2156 <adxl362_basic_init+0xc2>
    2144:	001007b7          	lui	a5,0x100
    2148:	1f078513          	addi	a0,a5,496 # 1001f0 <__init_array_end+0x1f0>
    214c:	539000ef          	jal	ra,2e84 <adxl362_interface_debug_print>
    2150:	4785                	li	a5,1
    2152:	02d0006f          	j	297e <adxl362_basic_init+0x8ea>
    2156:	4581                	li	a1,0
    2158:	001027b7          	lui	a5,0x102
    215c:	d8878513          	addi	a0,a5,-632 # 101d88 <gs_handle>
    2160:	069010ef          	jal	ra,39c8 <adxl362_set_fifo_temperature>
    2164:	87aa                	mv	a5,a0
    2166:	fef407a3          	sb	a5,-17(s0)
    216a:	fef44783          	lbu	a5,-17(s0)
    216e:	c385                	beqz	a5,218e <adxl362_basic_init+0xfa>
    2170:	001007b7          	lui	a5,0x100
    2174:	20878513          	addi	a0,a5,520 # 100208 <__init_array_end+0x208>
    2178:	50d000ef          	jal	ra,2e84 <adxl362_interface_debug_print>
    217c:	001027b7          	lui	a5,0x102
    2180:	d8878513          	addi	a0,a5,-632 # 101d88 <gs_handle>
    2184:	222010ef          	jal	ra,33a6 <adxl362_deinit>
    2188:	4785                	li	a5,1
    218a:	7f40006f          	j	297e <adxl362_basic_init+0x8ea>
    218e:	4581                	li	a1,0
    2190:	001027b7          	lui	a5,0x102
    2194:	d8878513          	addi	a0,a5,-632 # 101d88 <gs_handle>
    2198:	17b010ef          	jal	ra,3b12 <adxl362_set_fifo_mode>
    219c:	87aa                	mv	a5,a0
    219e:	fef407a3          	sb	a5,-17(s0)
    21a2:	fef44783          	lbu	a5,-17(s0)
    21a6:	c385                	beqz	a5,21c6 <adxl362_basic_init+0x132>
    21a8:	001007b7          	lui	a5,0x100
    21ac:	23078513          	addi	a0,a5,560 # 100230 <__init_array_end+0x230>
    21b0:	4d5000ef          	jal	ra,2e84 <adxl362_interface_debug_print>
    21b4:	001027b7          	lui	a5,0x102
    21b8:	d8878513          	addi	a0,a5,-632 # 101d88 <gs_handle>
    21bc:	1ea010ef          	jal	ra,33a6 <adxl362_deinit>
    21c0:	4785                	li	a5,1
    21c2:	7bc0006f          	j	297e <adxl362_basic_init+0x8ea>
    21c6:	4581                	li	a1,0
    21c8:	001027b7          	lui	a5,0x102
    21cc:	d8878513          	addi	a0,a5,-632 # 101d88 <gs_handle>
    21d0:	281010ef          	jal	ra,3c50 <adxl362_set_fifo_sample>
    21d4:	87aa                	mv	a5,a0
    21d6:	fef407a3          	sb	a5,-17(s0)
    21da:	fef44783          	lbu	a5,-17(s0)
    21de:	c385                	beqz	a5,21fe <adxl362_basic_init+0x16a>
    21e0:	001007b7          	lui	a5,0x100
    21e4:	25078513          	addi	a0,a5,592 # 100250 <__init_array_end+0x250>
    21e8:	49d000ef          	jal	ra,2e84 <adxl362_interface_debug_print>
    21ec:	001027b7          	lui	a5,0x102
    21f0:	d8878513          	addi	a0,a5,-632 # 101d88 <gs_handle>
    21f4:	1b2010ef          	jal	ra,33a6 <adxl362_deinit>
    21f8:	4785                	li	a5,1
    21fa:	7840006f          	j	297e <adxl362_basic_init+0x8ea>
    21fe:	4585                	li	a1,1
    2200:	001027b7          	lui	a5,0x102
    2204:	d8878513          	addi	a0,a5,-632 # 101d88 <gs_handle>
    2208:	465010ef          	jal	ra,3e6c <adxl362_set_interrupt_pin1_active_level>
    220c:	87aa                	mv	a5,a0
    220e:	fef407a3          	sb	a5,-17(s0)
    2212:	fef44783          	lbu	a5,-17(s0)
    2216:	c385                	beqz	a5,2236 <adxl362_basic_init+0x1a2>
    2218:	001007b7          	lui	a5,0x100
    221c:	27478513          	addi	a0,a5,628 # 100274 <__init_array_end+0x274>
    2220:	465000ef          	jal	ra,2e84 <adxl362_interface_debug_print>
    2224:	001027b7          	lui	a5,0x102
    2228:	d8878513          	addi	a0,a5,-632 # 101d88 <gs_handle>
    222c:	17a010ef          	jal	ra,33a6 <adxl362_deinit>
    2230:	4785                	li	a5,1
    2232:	74c0006f          	j	297e <adxl362_basic_init+0x8ea>
    2236:	4601                	li	a2,0
    2238:	4599                	li	a1,6
    223a:	001027b7          	lui	a5,0x102
    223e:	d8878513          	addi	a0,a5,-632 # 101d88 <gs_handle>
    2242:	577010ef          	jal	ra,3fb8 <adxl362_set_interrupt_pin1_map>
    2246:	87aa                	mv	a5,a0
    2248:	fef407a3          	sb	a5,-17(s0)
    224c:	fef44783          	lbu	a5,-17(s0)
    2250:	c385                	beqz	a5,2270 <adxl362_basic_init+0x1dc>
    2252:	001007b7          	lui	a5,0x100
    2256:	2a878513          	addi	a0,a5,680 # 1002a8 <__init_array_end+0x2a8>
    225a:	42b000ef          	jal	ra,2e84 <adxl362_interface_debug_print>
    225e:	001027b7          	lui	a5,0x102
    2262:	d8878513          	addi	a0,a5,-632 # 101d88 <gs_handle>
    2266:	140010ef          	jal	ra,33a6 <adxl362_deinit>
    226a:	4785                	li	a5,1
    226c:	7120006f          	j	297e <adxl362_basic_init+0x8ea>
    2270:	4601                	li	a2,0
    2272:	4595                	li	a1,5
    2274:	001027b7          	lui	a5,0x102
    2278:	d8878513          	addi	a0,a5,-632 # 101d88 <gs_handle>
    227c:	53d010ef          	jal	ra,3fb8 <adxl362_set_interrupt_pin1_map>
    2280:	87aa                	mv	a5,a0
    2282:	fef407a3          	sb	a5,-17(s0)
    2286:	fef44783          	lbu	a5,-17(s0)
    228a:	c385                	beqz	a5,22aa <adxl362_basic_init+0x216>
    228c:	001007b7          	lui	a5,0x100
    2290:	2a878513          	addi	a0,a5,680 # 1002a8 <__init_array_end+0x2a8>
    2294:	3f1000ef          	jal	ra,2e84 <adxl362_interface_debug_print>
    2298:	001027b7          	lui	a5,0x102
    229c:	d8878513          	addi	a0,a5,-632 # 101d88 <gs_handle>
    22a0:	106010ef          	jal	ra,33a6 <adxl362_deinit>
    22a4:	4785                	li	a5,1
    22a6:	6d80006f          	j	297e <adxl362_basic_init+0x8ea>
    22aa:	4601                	li	a2,0
    22ac:	4591                	li	a1,4
    22ae:	001027b7          	lui	a5,0x102
    22b2:	d8878513          	addi	a0,a5,-632 # 101d88 <gs_handle>
    22b6:	503010ef          	jal	ra,3fb8 <adxl362_set_interrupt_pin1_map>
    22ba:	87aa                	mv	a5,a0
    22bc:	fef407a3          	sb	a5,-17(s0)
    22c0:	fef44783          	lbu	a5,-17(s0)
    22c4:	c385                	beqz	a5,22e4 <adxl362_basic_init+0x250>
    22c6:	001007b7          	lui	a5,0x100
    22ca:	2a878513          	addi	a0,a5,680 # 1002a8 <__init_array_end+0x2a8>
    22ce:	3b7000ef          	jal	ra,2e84 <adxl362_interface_debug_print>
    22d2:	001027b7          	lui	a5,0x102
    22d6:	d8878513          	addi	a0,a5,-632 # 101d88 <gs_handle>
    22da:	0cc010ef          	jal	ra,33a6 <adxl362_deinit>
    22de:	4785                	li	a5,1
    22e0:	69e0006f          	j	297e <adxl362_basic_init+0x8ea>
    22e4:	4601                	li	a2,0
    22e6:	458d                	li	a1,3
    22e8:	001027b7          	lui	a5,0x102
    22ec:	d8878513          	addi	a0,a5,-632 # 101d88 <gs_handle>
    22f0:	4c9010ef          	jal	ra,3fb8 <adxl362_set_interrupt_pin1_map>
    22f4:	87aa                	mv	a5,a0
    22f6:	fef407a3          	sb	a5,-17(s0)
    22fa:	fef44783          	lbu	a5,-17(s0)
    22fe:	cf99                	beqz	a5,231c <adxl362_basic_init+0x288>
    2300:	001007b7          	lui	a5,0x100
    2304:	2a878513          	addi	a0,a5,680 # 1002a8 <__init_array_end+0x2a8>
    2308:	37d000ef          	jal	ra,2e84 <adxl362_interface_debug_print>
    230c:	001027b7          	lui	a5,0x102
    2310:	d8878513          	addi	a0,a5,-632 # 101d88 <gs_handle>
    2314:	092010ef          	jal	ra,33a6 <adxl362_deinit>
    2318:	4785                	li	a5,1
    231a:	a595                	j	297e <adxl362_basic_init+0x8ea>
    231c:	4601                	li	a2,0
    231e:	4589                	li	a1,2
    2320:	001027b7          	lui	a5,0x102
    2324:	d8878513          	addi	a0,a5,-632 # 101d88 <gs_handle>
    2328:	491010ef          	jal	ra,3fb8 <adxl362_set_interrupt_pin1_map>
    232c:	87aa                	mv	a5,a0
    232e:	fef407a3          	sb	a5,-17(s0)
    2332:	fef44783          	lbu	a5,-17(s0)
    2336:	cf99                	beqz	a5,2354 <adxl362_basic_init+0x2c0>
    2338:	001007b7          	lui	a5,0x100
    233c:	2a878513          	addi	a0,a5,680 # 1002a8 <__init_array_end+0x2a8>
    2340:	345000ef          	jal	ra,2e84 <adxl362_interface_debug_print>
    2344:	001027b7          	lui	a5,0x102
    2348:	d8878513          	addi	a0,a5,-632 # 101d88 <gs_handle>
    234c:	05a010ef          	jal	ra,33a6 <adxl362_deinit>
    2350:	4785                	li	a5,1
    2352:	a535                	j	297e <adxl362_basic_init+0x8ea>
    2354:	4601                	li	a2,0
    2356:	4585                	li	a1,1
    2358:	001027b7          	lui	a5,0x102
    235c:	d8878513          	addi	a0,a5,-632 # 101d88 <gs_handle>
    2360:	459010ef          	jal	ra,3fb8 <adxl362_set_interrupt_pin1_map>
    2364:	87aa                	mv	a5,a0
    2366:	fef407a3          	sb	a5,-17(s0)
    236a:	fef44783          	lbu	a5,-17(s0)
    236e:	cf99                	beqz	a5,238c <adxl362_basic_init+0x2f8>
    2370:	001007b7          	lui	a5,0x100
    2374:	2a878513          	addi	a0,a5,680 # 1002a8 <__init_array_end+0x2a8>
    2378:	30d000ef          	jal	ra,2e84 <adxl362_interface_debug_print>
    237c:	001027b7          	lui	a5,0x102
    2380:	d8878513          	addi	a0,a5,-632 # 101d88 <gs_handle>
    2384:	022010ef          	jal	ra,33a6 <adxl362_deinit>
    2388:	4785                	li	a5,1
    238a:	abd5                	j	297e <adxl362_basic_init+0x8ea>
    238c:	4601                	li	a2,0
    238e:	4581                	li	a1,0
    2390:	001027b7          	lui	a5,0x102
    2394:	d8878513          	addi	a0,a5,-632 # 101d88 <gs_handle>
    2398:	421010ef          	jal	ra,3fb8 <adxl362_set_interrupt_pin1_map>
    239c:	87aa                	mv	a5,a0
    239e:	fef407a3          	sb	a5,-17(s0)
    23a2:	fef44783          	lbu	a5,-17(s0)
    23a6:	cf99                	beqz	a5,23c4 <adxl362_basic_init+0x330>
    23a8:	001007b7          	lui	a5,0x100
    23ac:	2a878513          	addi	a0,a5,680 # 1002a8 <__init_array_end+0x2a8>
    23b0:	2d5000ef          	jal	ra,2e84 <adxl362_interface_debug_print>
    23b4:	001027b7          	lui	a5,0x102
    23b8:	d8878513          	addi	a0,a5,-632 # 101d88 <gs_handle>
    23bc:	7eb000ef          	jal	ra,33a6 <adxl362_deinit>
    23c0:	4785                	li	a5,1
    23c2:	ab75                	j	297e <adxl362_basic_init+0x8ea>
    23c4:	4585                	li	a1,1
    23c6:	001027b7          	lui	a5,0x102
    23ca:	d8878513          	addi	a0,a5,-632 # 101d88 <gs_handle>
    23ce:	563010ef          	jal	ra,4130 <adxl362_set_interrupt_pin2_active_level>
    23d2:	87aa                	mv	a5,a0
    23d4:	fef407a3          	sb	a5,-17(s0)
    23d8:	fef44783          	lbu	a5,-17(s0)
    23dc:	cf99                	beqz	a5,23fa <adxl362_basic_init+0x366>
    23de:	001007b7          	lui	a5,0x100
    23e2:	2d478513          	addi	a0,a5,724 # 1002d4 <__init_array_end+0x2d4>
    23e6:	29f000ef          	jal	ra,2e84 <adxl362_interface_debug_print>
    23ea:	001027b7          	lui	a5,0x102
    23ee:	d8878513          	addi	a0,a5,-632 # 101d88 <gs_handle>
    23f2:	7b5000ef          	jal	ra,33a6 <adxl362_deinit>
    23f6:	4785                	li	a5,1
    23f8:	a359                	j	297e <adxl362_basic_init+0x8ea>
    23fa:	4601                	li	a2,0
    23fc:	4599                	li	a1,6
    23fe:	001027b7          	lui	a5,0x102
    2402:	d8878513          	addi	a0,a5,-632 # 101d88 <gs_handle>
    2406:	677010ef          	jal	ra,427c <adxl362_set_interrupt_pin2_map>
    240a:	87aa                	mv	a5,a0
    240c:	fef407a3          	sb	a5,-17(s0)
    2410:	fef44783          	lbu	a5,-17(s0)
    2414:	cf99                	beqz	a5,2432 <adxl362_basic_init+0x39e>
    2416:	001007b7          	lui	a5,0x100
    241a:	30878513          	addi	a0,a5,776 # 100308 <__init_array_end+0x308>
    241e:	267000ef          	jal	ra,2e84 <adxl362_interface_debug_print>
    2422:	001027b7          	lui	a5,0x102
    2426:	d8878513          	addi	a0,a5,-632 # 101d88 <gs_handle>
    242a:	77d000ef          	jal	ra,33a6 <adxl362_deinit>
    242e:	4785                	li	a5,1
    2430:	a3b9                	j	297e <adxl362_basic_init+0x8ea>
    2432:	4601                	li	a2,0
    2434:	4595                	li	a1,5
    2436:	001027b7          	lui	a5,0x102
    243a:	d8878513          	addi	a0,a5,-632 # 101d88 <gs_handle>
    243e:	63f010ef          	jal	ra,427c <adxl362_set_interrupt_pin2_map>
    2442:	87aa                	mv	a5,a0
    2444:	fef407a3          	sb	a5,-17(s0)
    2448:	fef44783          	lbu	a5,-17(s0)
    244c:	cf99                	beqz	a5,246a <adxl362_basic_init+0x3d6>
    244e:	001007b7          	lui	a5,0x100
    2452:	30878513          	addi	a0,a5,776 # 100308 <__init_array_end+0x308>
    2456:	22f000ef          	jal	ra,2e84 <adxl362_interface_debug_print>
    245a:	001027b7          	lui	a5,0x102
    245e:	d8878513          	addi	a0,a5,-632 # 101d88 <gs_handle>
    2462:	745000ef          	jal	ra,33a6 <adxl362_deinit>
    2466:	4785                	li	a5,1
    2468:	ab19                	j	297e <adxl362_basic_init+0x8ea>
    246a:	4601                	li	a2,0
    246c:	4591                	li	a1,4
    246e:	001027b7          	lui	a5,0x102
    2472:	d8878513          	addi	a0,a5,-632 # 101d88 <gs_handle>
    2476:	607010ef          	jal	ra,427c <adxl362_set_interrupt_pin2_map>
    247a:	87aa                	mv	a5,a0
    247c:	fef407a3          	sb	a5,-17(s0)
    2480:	fef44783          	lbu	a5,-17(s0)
    2484:	cf99                	beqz	a5,24a2 <adxl362_basic_init+0x40e>
    2486:	001007b7          	lui	a5,0x100
    248a:	30878513          	addi	a0,a5,776 # 100308 <__init_array_end+0x308>
    248e:	1f7000ef          	jal	ra,2e84 <adxl362_interface_debug_print>
    2492:	001027b7          	lui	a5,0x102
    2496:	d8878513          	addi	a0,a5,-632 # 101d88 <gs_handle>
    249a:	70d000ef          	jal	ra,33a6 <adxl362_deinit>
    249e:	4785                	li	a5,1
    24a0:	a9f9                	j	297e <adxl362_basic_init+0x8ea>
    24a2:	4601                	li	a2,0
    24a4:	458d                	li	a1,3
    24a6:	001027b7          	lui	a5,0x102
    24aa:	d8878513          	addi	a0,a5,-632 # 101d88 <gs_handle>
    24ae:	5cf010ef          	jal	ra,427c <adxl362_set_interrupt_pin2_map>
    24b2:	87aa                	mv	a5,a0
    24b4:	fef407a3          	sb	a5,-17(s0)
    24b8:	fef44783          	lbu	a5,-17(s0)
    24bc:	cf99                	beqz	a5,24da <adxl362_basic_init+0x446>
    24be:	001007b7          	lui	a5,0x100
    24c2:	30878513          	addi	a0,a5,776 # 100308 <__init_array_end+0x308>
    24c6:	1bf000ef          	jal	ra,2e84 <adxl362_interface_debug_print>
    24ca:	001027b7          	lui	a5,0x102
    24ce:	d8878513          	addi	a0,a5,-632 # 101d88 <gs_handle>
    24d2:	6d5000ef          	jal	ra,33a6 <adxl362_deinit>
    24d6:	4785                	li	a5,1
    24d8:	a15d                	j	297e <adxl362_basic_init+0x8ea>
    24da:	4601                	li	a2,0
    24dc:	4589                	li	a1,2
    24de:	001027b7          	lui	a5,0x102
    24e2:	d8878513          	addi	a0,a5,-632 # 101d88 <gs_handle>
    24e6:	597010ef          	jal	ra,427c <adxl362_set_interrupt_pin2_map>
    24ea:	87aa                	mv	a5,a0
    24ec:	fef407a3          	sb	a5,-17(s0)
    24f0:	fef44783          	lbu	a5,-17(s0)
    24f4:	cf99                	beqz	a5,2512 <adxl362_basic_init+0x47e>
    24f6:	001007b7          	lui	a5,0x100
    24fa:	30878513          	addi	a0,a5,776 # 100308 <__init_array_end+0x308>
    24fe:	187000ef          	jal	ra,2e84 <adxl362_interface_debug_print>
    2502:	001027b7          	lui	a5,0x102
    2506:	d8878513          	addi	a0,a5,-632 # 101d88 <gs_handle>
    250a:	69d000ef          	jal	ra,33a6 <adxl362_deinit>
    250e:	4785                	li	a5,1
    2510:	a1bd                	j	297e <adxl362_basic_init+0x8ea>
    2512:	4601                	li	a2,0
    2514:	4585                	li	a1,1
    2516:	001027b7          	lui	a5,0x102
    251a:	d8878513          	addi	a0,a5,-632 # 101d88 <gs_handle>
    251e:	55f010ef          	jal	ra,427c <adxl362_set_interrupt_pin2_map>
    2522:	87aa                	mv	a5,a0
    2524:	fef407a3          	sb	a5,-17(s0)
    2528:	fef44783          	lbu	a5,-17(s0)
    252c:	cf99                	beqz	a5,254a <adxl362_basic_init+0x4b6>
    252e:	001007b7          	lui	a5,0x100
    2532:	30878513          	addi	a0,a5,776 # 100308 <__init_array_end+0x308>
    2536:	14f000ef          	jal	ra,2e84 <adxl362_interface_debug_print>
    253a:	001027b7          	lui	a5,0x102
    253e:	d8878513          	addi	a0,a5,-632 # 101d88 <gs_handle>
    2542:	665000ef          	jal	ra,33a6 <adxl362_deinit>
    2546:	4785                	li	a5,1
    2548:	a91d                	j	297e <adxl362_basic_init+0x8ea>
    254a:	4601                	li	a2,0
    254c:	4581                	li	a1,0
    254e:	001027b7          	lui	a5,0x102
    2552:	d8878513          	addi	a0,a5,-632 # 101d88 <gs_handle>
    2556:	527010ef          	jal	ra,427c <adxl362_set_interrupt_pin2_map>
    255a:	87aa                	mv	a5,a0
    255c:	fef407a3          	sb	a5,-17(s0)
    2560:	fef44783          	lbu	a5,-17(s0)
    2564:	cf99                	beqz	a5,2582 <adxl362_basic_init+0x4ee>
    2566:	001007b7          	lui	a5,0x100
    256a:	30878513          	addi	a0,a5,776 # 100308 <__init_array_end+0x308>
    256e:	117000ef          	jal	ra,2e84 <adxl362_interface_debug_print>
    2572:	001027b7          	lui	a5,0x102
    2576:	d8878513          	addi	a0,a5,-632 # 101d88 <gs_handle>
    257a:	62d000ef          	jal	ra,33a6 <adxl362_deinit>
    257e:	4785                	li	a5,1
    2580:	aefd                	j	297e <adxl362_basic_init+0x8ea>
    2582:	4581                	li	a1,0
    2584:	001027b7          	lui	a5,0x102
    2588:	d8878513          	addi	a0,a5,-632 # 101d88 <gs_handle>
    258c:	7b5010ef          	jal	ra,4540 <adxl362_set_bandwidth>
    2590:	87aa                	mv	a5,a0
    2592:	fef407a3          	sb	a5,-17(s0)
    2596:	fef44783          	lbu	a5,-17(s0)
    259a:	cf99                	beqz	a5,25b8 <adxl362_basic_init+0x524>
    259c:	001007b7          	lui	a5,0x100
    25a0:	33478513          	addi	a0,a5,820 # 100334 <__init_array_end+0x334>
    25a4:	0e1000ef          	jal	ra,2e84 <adxl362_interface_debug_print>
    25a8:	001027b7          	lui	a5,0x102
    25ac:	d8878513          	addi	a0,a5,-632 # 101d88 <gs_handle>
    25b0:	5f7000ef          	jal	ra,33a6 <adxl362_deinit>
    25b4:	4785                	li	a5,1
    25b6:	a6e1                	j	297e <adxl362_basic_init+0x8ea>
    25b8:	4581                	li	a1,0
    25ba:	001027b7          	lui	a5,0x102
    25be:	d8878513          	addi	a0,a5,-632 # 101d88 <gs_handle>
    25c2:	49c020ef          	jal	ra,4a5e <adxl362_set_noise_mode>
    25c6:	87aa                	mv	a5,a0
    25c8:	fef407a3          	sb	a5,-17(s0)
    25cc:	fef44783          	lbu	a5,-17(s0)
    25d0:	cf99                	beqz	a5,25ee <adxl362_basic_init+0x55a>
    25d2:	001007b7          	lui	a5,0x100
    25d6:	35478513          	addi	a0,a5,852 # 100354 <__init_array_end+0x354>
    25da:	0ab000ef          	jal	ra,2e84 <adxl362_interface_debug_print>
    25de:	001027b7          	lui	a5,0x102
    25e2:	d8878513          	addi	a0,a5,-632 # 101d88 <gs_handle>
    25e6:	5c1000ef          	jal	ra,33a6 <adxl362_deinit>
    25ea:	4785                	li	a5,1
    25ec:	ae49                	j	297e <adxl362_basic_init+0x8ea>
    25ee:	4581                	li	a1,0
    25f0:	001027b7          	lui	a5,0x102
    25f4:	d8878513          	addi	a0,a5,-632 # 101d88 <gs_handle>
    25f8:	5b2020ef          	jal	ra,4baa <adxl362_set_wake_up>
    25fc:	87aa                	mv	a5,a0
    25fe:	fef407a3          	sb	a5,-17(s0)
    2602:	fef44783          	lbu	a5,-17(s0)
    2606:	cf99                	beqz	a5,2624 <adxl362_basic_init+0x590>
    2608:	001007b7          	lui	a5,0x100
    260c:	37878513          	addi	a0,a5,888 # 100378 <__init_array_end+0x378>
    2610:	075000ef          	jal	ra,2e84 <adxl362_interface_debug_print>
    2614:	001027b7          	lui	a5,0x102
    2618:	d8878513          	addi	a0,a5,-632 # 101d88 <gs_handle>
    261c:	58b000ef          	jal	ra,33a6 <adxl362_deinit>
    2620:	4785                	li	a5,1
    2622:	aeb1                	j	297e <adxl362_basic_init+0x8ea>
    2624:	4581                	li	a1,0
    2626:	001027b7          	lui	a5,0x102
    262a:	d8878513          	addi	a0,a5,-632 # 101d88 <gs_handle>
    262e:	6c6020ef          	jal	ra,4cf4 <adxl362_set_auto_sleep>
    2632:	87aa                	mv	a5,a0
    2634:	fef407a3          	sb	a5,-17(s0)
    2638:	fef44783          	lbu	a5,-17(s0)
    263c:	cf99                	beqz	a5,265a <adxl362_basic_init+0x5c6>
    263e:	001007b7          	lui	a5,0x100
    2642:	39878513          	addi	a0,a5,920 # 100398 <__init_array_end+0x398>
    2646:	03f000ef          	jal	ra,2e84 <adxl362_interface_debug_print>
    264a:	001027b7          	lui	a5,0x102
    264e:	d8878513          	addi	a0,a5,-632 # 101d88 <gs_handle>
    2652:	555000ef          	jal	ra,33a6 <adxl362_deinit>
    2656:	4785                	li	a5,1
    2658:	a61d                	j	297e <adxl362_basic_init+0x8ea>
    265a:	4581                	li	a1,0
    265c:	001027b7          	lui	a5,0x102
    2660:	d8878513          	addi	a0,a5,-632 # 101d88 <gs_handle>
    2664:	026020ef          	jal	ra,468a <adxl362_set_interrupt_pin2_as_external_sampling_trigger>
    2668:	87aa                	mv	a5,a0
    266a:	fef407a3          	sb	a5,-17(s0)
    266e:	fef44783          	lbu	a5,-17(s0)
    2672:	cf99                	beqz	a5,2690 <adxl362_basic_init+0x5fc>
    2674:	001007b7          	lui	a5,0x100
    2678:	3bc78513          	addi	a0,a5,956 # 1003bc <__init_array_end+0x3bc>
    267c:	009000ef          	jal	ra,2e84 <adxl362_interface_debug_print>
    2680:	001027b7          	lui	a5,0x102
    2684:	d8878513          	addi	a0,a5,-632 # 101d88 <gs_handle>
    2688:	51f000ef          	jal	ra,33a6 <adxl362_deinit>
    268c:	4785                	li	a5,1
    268e:	acc5                	j	297e <adxl362_basic_init+0x8ea>
    2690:	4581                	li	a1,0
    2692:	001027b7          	lui	a5,0x102
    2696:	d8878513          	addi	a0,a5,-632 # 101d88 <gs_handle>
    269a:	278020ef          	jal	ra,4912 <adxl362_set_interrupt_pin1_as_external_clock>
    269e:	87aa                	mv	a5,a0
    26a0:	fef407a3          	sb	a5,-17(s0)
    26a4:	fef44783          	lbu	a5,-17(s0)
    26a8:	cf99                	beqz	a5,26c6 <adxl362_basic_init+0x632>
    26aa:	001007b7          	lui	a5,0x100
    26ae:	40078513          	addi	a0,a5,1024 # 100400 <__init_array_end+0x400>
    26b2:	7d2000ef          	jal	ra,2e84 <adxl362_interface_debug_print>
    26b6:	001027b7          	lui	a5,0x102
    26ba:	d8878513          	addi	a0,a5,-632 # 101d88 <gs_handle>
    26be:	4e9000ef          	jal	ra,33a6 <adxl362_deinit>
    26c2:	4785                	li	a5,1
    26c4:	ac6d                	j	297e <adxl362_basic_init+0x8ea>
    26c6:	4581                	li	a1,0
    26c8:	001027b7          	lui	a5,0x102
    26cc:	d8878513          	addi	a0,a5,-632 # 101d88 <gs_handle>
    26d0:	1eb020ef          	jal	ra,50ba <adxl362_set_activity_threshold>
    26d4:	87aa                	mv	a5,a0
    26d6:	fef407a3          	sb	a5,-17(s0)
    26da:	fef44783          	lbu	a5,-17(s0)
    26de:	cf99                	beqz	a5,26fc <adxl362_basic_init+0x668>
    26e0:	001007b7          	lui	a5,0x100
    26e4:	43878513          	addi	a0,a5,1080 # 100438 <__init_array_end+0x438>
    26e8:	79c000ef          	jal	ra,2e84 <adxl362_interface_debug_print>
    26ec:	001027b7          	lui	a5,0x102
    26f0:	d8878513          	addi	a0,a5,-632 # 101d88 <gs_handle>
    26f4:	4b3000ef          	jal	ra,33a6 <adxl362_deinit>
    26f8:	4785                	li	a5,1
    26fa:	a451                	j	297e <adxl362_basic_init+0x8ea>
    26fc:	4581                	li	a1,0
    26fe:	001027b7          	lui	a5,0x102
    2702:	d8878513          	addi	a0,a5,-632 # 101d88 <gs_handle>
    2706:	54b020ef          	jal	ra,5450 <adxl362_set_activity_time>
    270a:	87aa                	mv	a5,a0
    270c:	fef407a3          	sb	a5,-17(s0)
    2710:	fef44783          	lbu	a5,-17(s0)
    2714:	cf99                	beqz	a5,2732 <adxl362_basic_init+0x69e>
    2716:	001007b7          	lui	a5,0x100
    271a:	46478513          	addi	a0,a5,1124 # 100464 <__init_array_end+0x464>
    271e:	766000ef          	jal	ra,2e84 <adxl362_interface_debug_print>
    2722:	001027b7          	lui	a5,0x102
    2726:	d8878513          	addi	a0,a5,-632 # 101d88 <gs_handle>
    272a:	47d000ef          	jal	ra,33a6 <adxl362_deinit>
    272e:	4785                	li	a5,1
    2730:	a4b9                	j	297e <adxl362_basic_init+0x8ea>
    2732:	4581                	li	a1,0
    2734:	001027b7          	lui	a5,0x102
    2738:	d8878513          	addi	a0,a5,-632 # 101d88 <gs_handle>
    273c:	236030ef          	jal	ra,5972 <adxl362_set_inactivity_threshold>
    2740:	87aa                	mv	a5,a0
    2742:	fef407a3          	sb	a5,-17(s0)
    2746:	fef44783          	lbu	a5,-17(s0)
    274a:	cf99                	beqz	a5,2768 <adxl362_basic_init+0x6d4>
    274c:	001007b7          	lui	a5,0x100
    2750:	48878513          	addi	a0,a5,1160 # 100488 <__init_array_end+0x488>
    2754:	730000ef          	jal	ra,2e84 <adxl362_interface_debug_print>
    2758:	001027b7          	lui	a5,0x102
    275c:	d8878513          	addi	a0,a5,-632 # 101d88 <gs_handle>
    2760:	447000ef          	jal	ra,33a6 <adxl362_deinit>
    2764:	4785                	li	a5,1
    2766:	ac21                	j	297e <adxl362_basic_init+0x8ea>
    2768:	4581                	li	a1,0
    276a:	001027b7          	lui	a5,0x102
    276e:	d8878513          	addi	a0,a5,-632 # 101d88 <gs_handle>
    2772:	596030ef          	jal	ra,5d08 <adxl362_set_inactivity_time>
    2776:	87aa                	mv	a5,a0
    2778:	fef407a3          	sb	a5,-17(s0)
    277c:	fef44783          	lbu	a5,-17(s0)
    2780:	cf99                	beqz	a5,279e <adxl362_basic_init+0x70a>
    2782:	001007b7          	lui	a5,0x100
    2786:	4b478513          	addi	a0,a5,1204 # 1004b4 <__init_array_end+0x4b4>
    278a:	6fa000ef          	jal	ra,2e84 <adxl362_interface_debug_print>
    278e:	001027b7          	lui	a5,0x102
    2792:	d8878513          	addi	a0,a5,-632 # 101d88 <gs_handle>
    2796:	411000ef          	jal	ra,33a6 <adxl362_deinit>
    279a:	4785                	li	a5,1
    279c:	a2cd                	j	297e <adxl362_basic_init+0x8ea>
    279e:	4585                	li	a1,1
    27a0:	001027b7          	lui	a5,0x102
    27a4:	d8878513          	addi	a0,a5,-632 # 101d88 <gs_handle>
    27a8:	2c1030ef          	jal	ra,6268 <adxl362_set_detect_mode>
    27ac:	87aa                	mv	a5,a0
    27ae:	fef407a3          	sb	a5,-17(s0)
    27b2:	fef44783          	lbu	a5,-17(s0)
    27b6:	cf99                	beqz	a5,27d4 <adxl362_basic_init+0x740>
    27b8:	001007b7          	lui	a5,0x100
    27bc:	4dc78513          	addi	a0,a5,1244 # 1004dc <__init_array_end+0x4dc>
    27c0:	6c4000ef          	jal	ra,2e84 <adxl362_interface_debug_print>
    27c4:	001027b7          	lui	a5,0x102
    27c8:	d8878513          	addi	a0,a5,-632 # 101d88 <gs_handle>
    27cc:	3db000ef          	jal	ra,33a6 <adxl362_deinit>
    27d0:	4785                	li	a5,1
    27d2:	a275                	j	297e <adxl362_basic_init+0x8ea>
    27d4:	4585                	li	a1,1
    27d6:	001027b7          	lui	a5,0x102
    27da:	d8878513          	addi	a0,a5,-632 # 101d88 <gs_handle>
    27de:	3d7030ef          	jal	ra,63b4 <adxl362_set_inactivity_detect_trigger>
    27e2:	87aa                	mv	a5,a0
    27e4:	fef407a3          	sb	a5,-17(s0)
    27e8:	fef44783          	lbu	a5,-17(s0)
    27ec:	cf99                	beqz	a5,280a <adxl362_basic_init+0x776>
    27ee:	001007b7          	lui	a5,0x100
    27f2:	50078513          	addi	a0,a5,1280 # 100500 <__init_array_end+0x500>
    27f6:	68e000ef          	jal	ra,2e84 <adxl362_interface_debug_print>
    27fa:	001027b7          	lui	a5,0x102
    27fe:	d8878513          	addi	a0,a5,-632 # 101d88 <gs_handle>
    2802:	3a5000ef          	jal	ra,33a6 <adxl362_deinit>
    2806:	4785                	li	a5,1
    2808:	aa9d                	j	297e <adxl362_basic_init+0x8ea>
    280a:	4585                	li	a1,1
    280c:	001027b7          	lui	a5,0x102
    2810:	d8878513          	addi	a0,a5,-632 # 101d88 <gs_handle>
    2814:	4eb030ef          	jal	ra,64fe <adxl362_set_activity_detect_trigger>
    2818:	87aa                	mv	a5,a0
    281a:	fef407a3          	sb	a5,-17(s0)
    281e:	fef44783          	lbu	a5,-17(s0)
    2822:	cf99                	beqz	a5,2840 <adxl362_basic_init+0x7ac>
    2824:	001007b7          	lui	a5,0x100
    2828:	53078513          	addi	a0,a5,1328 # 100530 <__init_array_end+0x530>
    282c:	658000ef          	jal	ra,2e84 <adxl362_interface_debug_print>
    2830:	001027b7          	lui	a5,0x102
    2834:	d8878513          	addi	a0,a5,-632 # 101d88 <gs_handle>
    2838:	36f000ef          	jal	ra,33a6 <adxl362_deinit>
    283c:	4785                	li	a5,1
    283e:	a281                	j	297e <adxl362_basic_init+0x8ea>
    2840:	4581                	li	a1,0
    2842:	001027b7          	lui	a5,0x102
    2846:	d8878513          	addi	a0,a5,-632 # 101d88 <gs_handle>
    284a:	5ff030ef          	jal	ra,6648 <adxl362_set_inactivity>
    284e:	87aa                	mv	a5,a0
    2850:	fef407a3          	sb	a5,-17(s0)
    2854:	fef44783          	lbu	a5,-17(s0)
    2858:	cf99                	beqz	a5,2876 <adxl362_basic_init+0x7e2>
    285a:	001007b7          	lui	a5,0x100
    285e:	56078513          	addi	a0,a5,1376 # 100560 <__init_array_end+0x560>
    2862:	622000ef          	jal	ra,2e84 <adxl362_interface_debug_print>
    2866:	001027b7          	lui	a5,0x102
    286a:	d8878513          	addi	a0,a5,-632 # 101d88 <gs_handle>
    286e:	339000ef          	jal	ra,33a6 <adxl362_deinit>
    2872:	4785                	li	a5,1
    2874:	a229                	j	297e <adxl362_basic_init+0x8ea>
    2876:	4581                	li	a1,0
    2878:	001027b7          	lui	a5,0x102
    287c:	d8878513          	addi	a0,a5,-632 # 101d88 <gs_handle>
    2880:	713030ef          	jal	ra,6792 <adxl362_set_activity>
    2884:	87aa                	mv	a5,a0
    2886:	fef407a3          	sb	a5,-17(s0)
    288a:	fef44783          	lbu	a5,-17(s0)
    288e:	cf99                	beqz	a5,28ac <adxl362_basic_init+0x818>
    2890:	001007b7          	lui	a5,0x100
    2894:	58478513          	addi	a0,a5,1412 # 100584 <__init_array_end+0x584>
    2898:	5ec000ef          	jal	ra,2e84 <adxl362_interface_debug_print>
    289c:	001027b7          	lui	a5,0x102
    28a0:	d8878513          	addi	a0,a5,-632 # 101d88 <gs_handle>
    28a4:	303000ef          	jal	ra,33a6 <adxl362_deinit>
    28a8:	4785                	li	a5,1
    28aa:	a8d1                	j	297e <adxl362_basic_init+0x8ea>
    28ac:	4581                	li	a1,0
    28ae:	001027b7          	lui	a5,0x102
    28b2:	d8878513          	addi	a0,a5,-632 # 101d88 <gs_handle>
    28b6:	6c6020ef          	jal	ra,4f7c <adxl362_set_self_test>
    28ba:	87aa                	mv	a5,a0
    28bc:	fef407a3          	sb	a5,-17(s0)
    28c0:	fef44783          	lbu	a5,-17(s0)
    28c4:	cf91                	beqz	a5,28e0 <adxl362_basic_init+0x84c>
    28c6:	001007b7          	lui	a5,0x100
    28ca:	5a478513          	addi	a0,a5,1444 # 1005a4 <__init_array_end+0x5a4>
    28ce:	2b5d                	jal	2e84 <adxl362_interface_debug_print>
    28d0:	001027b7          	lui	a5,0x102
    28d4:	d8878513          	addi	a0,a5,-632 # 101d88 <gs_handle>
    28d8:	2cf000ef          	jal	ra,33a6 <adxl362_deinit>
    28dc:	4785                	li	a5,1
    28de:	a045                	j	297e <adxl362_basic_init+0x8ea>
    28e0:	4581                	li	a1,0
    28e2:	001027b7          	lui	a5,0x102
    28e6:	d8878513          	addi	a0,a5,-632 # 101d88 <gs_handle>
    28ea:	6eb010ef          	jal	ra,47d4 <adxl362_set_odr>
    28ee:	87aa                	mv	a5,a0
    28f0:	fef407a3          	sb	a5,-17(s0)
    28f4:	fef44783          	lbu	a5,-17(s0)
    28f8:	cf91                	beqz	a5,2914 <adxl362_basic_init+0x880>
    28fa:	001007b7          	lui	a5,0x100
    28fe:	5c478513          	addi	a0,a5,1476 # 1005c4 <__init_array_end+0x5c4>
    2902:	2349                	jal	2e84 <adxl362_interface_debug_print>
    2904:	001027b7          	lui	a5,0x102
    2908:	d8878513          	addi	a0,a5,-632 # 101d88 <gs_handle>
    290c:	29b000ef          	jal	ra,33a6 <adxl362_deinit>
    2910:	4785                	li	a5,1
    2912:	a0b5                	j	297e <adxl362_basic_init+0x8ea>
    2914:	4581                	li	a1,0
    2916:	001027b7          	lui	a5,0x102
    291a:	d8878513          	addi	a0,a5,-632 # 101d88 <gs_handle>
    291e:	2d7010ef          	jal	ra,43f4 <adxl362_set_range>
    2922:	87aa                	mv	a5,a0
    2924:	fef407a3          	sb	a5,-17(s0)
    2928:	fef44783          	lbu	a5,-17(s0)
    292c:	cf91                	beqz	a5,2948 <adxl362_basic_init+0x8b4>
    292e:	001007b7          	lui	a5,0x100
    2932:	5e078513          	addi	a0,a5,1504 # 1005e0 <__init_array_end+0x5e0>
    2936:	23b9                	jal	2e84 <adxl362_interface_debug_print>
    2938:	001027b7          	lui	a5,0x102
    293c:	d8878513          	addi	a0,a5,-632 # 101d88 <gs_handle>
    2940:	267000ef          	jal	ra,33a6 <adxl362_deinit>
    2944:	4785                	li	a5,1
    2946:	a825                	j	297e <adxl362_basic_init+0x8ea>
    2948:	4589                	li	a1,2
    294a:	001027b7          	lui	a5,0x102
    294e:	d8878513          	addi	a0,a5,-632 # 101d88 <gs_handle>
    2952:	4ec020ef          	jal	ra,4e3e <adxl362_set_mode>
    2956:	87aa                	mv	a5,a0
    2958:	fef407a3          	sb	a5,-17(s0)
    295c:	fef44783          	lbu	a5,-17(s0)
    2960:	cf91                	beqz	a5,297c <adxl362_basic_init+0x8e8>
    2962:	001007b7          	lui	a5,0x100
    2966:	5fc78513          	addi	a0,a5,1532 # 1005fc <__init_array_end+0x5fc>
    296a:	2b29                	jal	2e84 <adxl362_interface_debug_print>
    296c:	001027b7          	lui	a5,0x102
    2970:	d8878513          	addi	a0,a5,-632 # 101d88 <gs_handle>
    2974:	233000ef          	jal	ra,33a6 <adxl362_deinit>
    2978:	4785                	li	a5,1
    297a:	a011                	j	297e <adxl362_basic_init+0x8ea>
    297c:	4781                	li	a5,0
    297e:	853e                	mv	a0,a5
    2980:	40f2                	lw	ra,28(sp)
    2982:	4462                	lw	s0,24(sp)
    2984:	6105                	addi	sp,sp,32
    2986:	8082                	ret

00002988 <adxl362_basic_deinit>:
    2988:	1141                	addi	sp,sp,-16
    298a:	c606                	sw	ra,12(sp)
    298c:	c422                	sw	s0,8(sp)
    298e:	0800                	addi	s0,sp,16
    2990:	001027b7          	lui	a5,0x102
    2994:	d8878513          	addi	a0,a5,-632 # 101d88 <gs_handle>
    2998:	20f000ef          	jal	ra,33a6 <adxl362_deinit>
    299c:	87aa                	mv	a5,a0
    299e:	c399                	beqz	a5,29a4 <adxl362_basic_deinit+0x1c>
    29a0:	4785                	li	a5,1
    29a2:	a011                	j	29a6 <adxl362_basic_deinit+0x1e>
    29a4:	4781                	li	a5,0
    29a6:	853e                	mv	a0,a5
    29a8:	40b2                	lw	ra,12(sp)
    29aa:	4422                	lw	s0,8(sp)
    29ac:	0141                	addi	sp,sp,16
    29ae:	8082                	ret

000029b0 <adxl362_basic_read>:
    29b0:	1101                	addi	sp,sp,-32
    29b2:	ce06                	sw	ra,28(sp)
    29b4:	cc22                	sw	s0,24(sp)
    29b6:	1000                	addi	s0,sp,32
    29b8:	fea42623          	sw	a0,-20(s0)
    29bc:	feb42423          	sw	a1,-24(s0)
    29c0:	fe842603          	lw	a2,-24(s0)
    29c4:	fec42583          	lw	a1,-20(s0)
    29c8:	001027b7          	lui	a5,0x102
    29cc:	d8878513          	addi	a0,a5,-632 # 101d88 <gs_handle>
    29d0:	701030ef          	jal	ra,68d0 <adxl362_read>
    29d4:	87aa                	mv	a5,a0
    29d6:	c399                	beqz	a5,29dc <adxl362_basic_read+0x2c>
    29d8:	4785                	li	a5,1
    29da:	a011                	j	29de <adxl362_basic_read+0x2e>
    29dc:	4781                	li	a5,0
    29de:	853e                	mv	a0,a5
    29e0:	40f2                	lw	ra,28(sp)
    29e2:	4462                	lw	s0,24(sp)
    29e4:	6105                	addi	sp,sp,32
    29e6:	8082                	ret

000029e8 <adxl362_basic_read_8msb>:
    29e8:	7179                	addi	sp,sp,-48
    29ea:	d606                	sw	ra,44(sp)
    29ec:	d422                	sw	s0,40(sp)
    29ee:	1800                	addi	s0,sp,48
    29f0:	fca42e23          	sw	a0,-36(s0)
    29f4:	fec40793          	addi	a5,s0,-20
    29f8:	fdc42603          	lw	a2,-36(s0)
    29fc:	85be                	mv	a1,a5
    29fe:	001027b7          	lui	a5,0x102
    2a02:	d8878513          	addi	a0,a5,-632 # 101d88 <gs_handle>
    2a06:	267000ef          	jal	ra,346c <adxl362_read_8msb>
    2a0a:	87aa                	mv	a5,a0
    2a0c:	c399                	beqz	a5,2a12 <adxl362_basic_read_8msb+0x2a>
    2a0e:	4785                	li	a5,1
    2a10:	a011                	j	2a14 <adxl362_basic_read_8msb+0x2c>
    2a12:	4781                	li	a5,0
    2a14:	853e                	mv	a0,a5
    2a16:	50b2                	lw	ra,44(sp)
    2a18:	5422                	lw	s0,40(sp)
    2a1a:	6145                	addi	sp,sp,48
    2a1c:	8082                	ret

00002a1e <adxl362_basic_read_temperature>:
    2a1e:	7179                	addi	sp,sp,-48
    2a20:	d606                	sw	ra,44(sp)
    2a22:	d422                	sw	s0,40(sp)
    2a24:	1800                	addi	s0,sp,48
    2a26:	fca42e23          	sw	a0,-36(s0)
    2a2a:	fee40793          	addi	a5,s0,-18
    2a2e:	fdc42603          	lw	a2,-36(s0)
    2a32:	85be                	mv	a1,a5
    2a34:	001027b7          	lui	a5,0x102
    2a38:	d8878513          	addi	a0,a5,-632 # 101d88 <gs_handle>
    2a3c:	549000ef          	jal	ra,3784 <adxl362_read_temperature>
    2a40:	87aa                	mv	a5,a0
    2a42:	c399                	beqz	a5,2a48 <adxl362_basic_read_temperature+0x2a>
    2a44:	4785                	li	a5,1
    2a46:	a011                	j	2a4a <adxl362_basic_read_temperature+0x2c>
    2a48:	4781                	li	a5,0
    2a4a:	853e                	mv	a0,a5
    2a4c:	50b2                	lw	ra,44(sp)
    2a4e:	5422                	lw	s0,40(sp)
    2a50:	6145                	addi	sp,sp,48
    2a52:	8082                	ret

00002a54 <adxl362_interface_spi_init>:
    2a54:	1141                	addi	sp,sp,-16
    2a56:	c606                	sw	ra,12(sp)
    2a58:	c422                	sw	s0,8(sp)
    2a5a:	0800                	addi	s0,sp,16
    2a5c:	4505                	li	a0,1
    2a5e:	d3cfe0ef          	jal	ra,f9a <spi_setup_master>
    2a62:	1a1027b7          	lui	a5,0x1a102
    2a66:	0791                	addi	a5,a5,4
    2a68:	4751                	li	a4,20
    2a6a:	c398                	sw	a4,0(a5)
    2a6c:	1a1027b7          	lui	a5,0x1a102
    2a70:	02478793          	addi	a5,a5,36 # 1a102024 <_stack_start+0x19ffa024>
    2a74:	0007a023          	sw	zero,0(a5)
    2a78:	4781                	li	a5,0
    2a7a:	853e                	mv	a0,a5
    2a7c:	40b2                	lw	ra,12(sp)
    2a7e:	4422                	lw	s0,8(sp)
    2a80:	0141                	addi	sp,sp,16
    2a82:	8082                	ret

00002a84 <adxl362_interface_spi_deinit>:
    2a84:	1141                	addi	sp,sp,-16
    2a86:	c622                	sw	s0,12(sp)
    2a88:	0800                	addi	s0,sp,16
    2a8a:	4781                	li	a5,0
    2a8c:	853e                	mv	a0,a5
    2a8e:	4432                	lw	s0,12(sp)
    2a90:	0141                	addi	sp,sp,16
    2a92:	8082                	ret

00002a94 <adxl362_interface_spi_read>:
    2a94:	7179                	addi	sp,sp,-48
    2a96:	d606                	sw	ra,44(sp)
    2a98:	d422                	sw	s0,40(sp)
    2a9a:	1800                	addi	s0,sp,48
    2a9c:	87aa                	mv	a5,a0
    2a9e:	fcb42c23          	sw	a1,-40(s0)
    2aa2:	8732                	mv	a4,a2
    2aa4:	fcf40fa3          	sb	a5,-33(s0)
    2aa8:	87ba                	mv	a5,a4
    2aaa:	fcf41e23          	sh	a5,-36(s0)
    2aae:	1a1027b7          	lui	a5,0x1a102
    2ab2:	4741                	li	a4,16
    2ab4:	c398                	sw	a4,0(a5)
    2ab6:	0001                	nop
    2ab8:	1a1027b7          	lui	a5,0x1a102
    2abc:	439c                	lw	a5,0(a5)
    2abe:	8b85                	andi	a5,a5,1
    2ac0:	dfe5                	beqz	a5,2ab8 <adxl362_interface_spi_read+0x24>
    2ac2:	fdf44783          	lbu	a5,-33(s0)
    2ac6:	4681                	li	a3,0
    2ac8:	4601                	li	a2,0
    2aca:	45a1                	li	a1,8
    2acc:	853e                	mv	a0,a5
    2ace:	d38fe0ef          	jal	ra,1006 <spi_setup_cmd_addr>
    2ad2:	fdc45783          	lhu	a5,-36(s0)
    2ad6:	078e                	slli	a5,a5,0x3
    2ad8:	853e                	mv	a0,a5
    2ada:	dd0fe0ef          	jal	ra,10aa <spi_set_datalen>
    2ade:	4581                	li	a1,0
    2ae0:	4501                	li	a0,0
    2ae2:	e0cfe0ef          	jal	ra,10ee <spi_start_transaction>
    2ae6:	fd842783          	lw	a5,-40(s0)
    2aea:	fef42623          	sw	a5,-20(s0)
    2aee:	fdc45783          	lhu	a5,-36(s0)
    2af2:	fef41523          	sh	a5,-22(s0)
    2af6:	a061                	j	2b7e <adxl362_interface_spi_read+0xea>
    2af8:	0001                	nop
    2afa:	1a1027b7          	lui	a5,0x1a102
    2afe:	439c                	lw	a5,0(a5)
    2b00:	87c1                	srai	a5,a5,0x10
    2b02:	0ff7f793          	andi	a5,a5,255
    2b06:	dbf5                	beqz	a5,2afa <adxl362_interface_spi_read+0x66>
    2b08:	1a1027b7          	lui	a5,0x1a102
    2b0c:	02078793          	addi	a5,a5,32 # 1a102020 <_stack_start+0x19ffa020>
    2b10:	439c                	lw	a5,0(a5)
    2b12:	fef42223          	sw	a5,-28(s0)
    2b16:	fea45783          	lhu	a5,-22(s0)
    2b1a:	01079693          	slli	a3,a5,0x10
    2b1e:	86c1                	srai	a3,a3,0x10
    2b20:	4711                	li	a4,4
    2b22:	00d75363          	bge	a4,a3,2b28 <adxl362_interface_spi_read+0x94>
    2b26:	4791                	li	a5,4
    2b28:	07c2                	slli	a5,a5,0x10
    2b2a:	87c1                	srai	a5,a5,0x10
    2b2c:	17fd                	addi	a5,a5,-1
    2b2e:	fef42023          	sw	a5,-32(s0)
    2b32:	a035                	j	2b5e <adxl362_interface_spi_read+0xca>
    2b34:	fe042783          	lw	a5,-32(s0)
    2b38:	fec42703          	lw	a4,-20(s0)
    2b3c:	97ba                	add	a5,a5,a4
    2b3e:	fe442703          	lw	a4,-28(s0)
    2b42:	0ff77713          	andi	a4,a4,255
    2b46:	00e78023          	sb	a4,0(a5)
    2b4a:	fe442783          	lw	a5,-28(s0)
    2b4e:	83a1                	srli	a5,a5,0x8
    2b50:	fef42223          	sw	a5,-28(s0)
    2b54:	fe042783          	lw	a5,-32(s0)
    2b58:	17fd                	addi	a5,a5,-1
    2b5a:	fef42023          	sw	a5,-32(s0)
    2b5e:	fe042783          	lw	a5,-32(s0)
    2b62:	fc07d9e3          	bgez	a5,2b34 <adxl362_interface_spi_read+0xa0>
    2b66:	fec42783          	lw	a5,-20(s0)
    2b6a:	0791                	addi	a5,a5,4
    2b6c:	fef42623          	sw	a5,-20(s0)
    2b70:	fea45783          	lhu	a5,-22(s0)
    2b74:	17f1                	addi	a5,a5,-4
    2b76:	07c2                	slli	a5,a5,0x10
    2b78:	83c1                	srli	a5,a5,0x10
    2b7a:	fef41523          	sh	a5,-22(s0)
    2b7e:	fea41783          	lh	a5,-22(s0)
    2b82:	f6f04be3          	bgtz	a5,2af8 <adxl362_interface_spi_read+0x64>
    2b86:	0001                	nop
    2b88:	1a1027b7          	lui	a5,0x1a102
    2b8c:	439c                	lw	a5,0(a5)
    2b8e:	8b85                	andi	a5,a5,1
    2b90:	dfe5                	beqz	a5,2b88 <adxl362_interface_spi_read+0xf4>
    2b92:	fdf44703          	lbu	a4,-33(s0)
    2b96:	fd842783          	lw	a5,-40(s0)
    2b9a:	439c                	lw	a5,0(a5)
    2b9c:	fdc45683          	lhu	a3,-36(s0)
    2ba0:	863e                	mv	a2,a5
    2ba2:	85ba                	mv	a1,a4
    2ba4:	001007b7          	lui	a5,0x100
    2ba8:	61878513          	addi	a0,a5,1560 # 100618 <__init_array_end+0x618>
    2bac:	2ce1                	jal	2e84 <adxl362_interface_debug_print>
    2bae:	4781                	li	a5,0
    2bb0:	853e                	mv	a0,a5
    2bb2:	50b2                	lw	ra,44(sp)
    2bb4:	5422                	lw	s0,40(sp)
    2bb6:	6145                	addi	sp,sp,48
    2bb8:	8082                	ret

00002bba <adxl362_interface_spi_read_address16>:
    2bba:	7179                	addi	sp,sp,-48
    2bbc:	d606                	sw	ra,44(sp)
    2bbe:	d422                	sw	s0,40(sp)
    2bc0:	1800                	addi	s0,sp,48
    2bc2:	87aa                	mv	a5,a0
    2bc4:	fcb42c23          	sw	a1,-40(s0)
    2bc8:	8732                	mv	a4,a2
    2bca:	fcf41f23          	sh	a5,-34(s0)
    2bce:	87ba                	mv	a5,a4
    2bd0:	fcf41e23          	sh	a5,-36(s0)
    2bd4:	1a1027b7          	lui	a5,0x1a102
    2bd8:	4741                	li	a4,16
    2bda:	c398                	sw	a4,0(a5)
    2bdc:	0001                	nop
    2bde:	1a1027b7          	lui	a5,0x1a102
    2be2:	439c                	lw	a5,0(a5)
    2be4:	8b85                	andi	a5,a5,1
    2be6:	dfe5                	beqz	a5,2bde <adxl362_interface_spi_read_address16+0x24>
    2be8:	fde45783          	lhu	a5,-34(s0)
    2bec:	4681                	li	a3,0
    2bee:	4601                	li	a2,0
    2bf0:	45c1                	li	a1,16
    2bf2:	853e                	mv	a0,a5
    2bf4:	c12fe0ef          	jal	ra,1006 <spi_setup_cmd_addr>
    2bf8:	fdc45783          	lhu	a5,-36(s0)
    2bfc:	078e                	slli	a5,a5,0x3
    2bfe:	853e                	mv	a0,a5
    2c00:	caafe0ef          	jal	ra,10aa <spi_set_datalen>
    2c04:	4581                	li	a1,0
    2c06:	4501                	li	a0,0
    2c08:	ce6fe0ef          	jal	ra,10ee <spi_start_transaction>
    2c0c:	fd842783          	lw	a5,-40(s0)
    2c10:	fef42623          	sw	a5,-20(s0)
    2c14:	fdc45783          	lhu	a5,-36(s0)
    2c18:	fef41523          	sh	a5,-22(s0)
    2c1c:	a061                	j	2ca4 <adxl362_interface_spi_read_address16+0xea>
    2c1e:	0001                	nop
    2c20:	1a1027b7          	lui	a5,0x1a102
    2c24:	439c                	lw	a5,0(a5)
    2c26:	87c1                	srai	a5,a5,0x10
    2c28:	0ff7f793          	andi	a5,a5,255
    2c2c:	dbf5                	beqz	a5,2c20 <adxl362_interface_spi_read_address16+0x66>
    2c2e:	1a1027b7          	lui	a5,0x1a102
    2c32:	02078793          	addi	a5,a5,32 # 1a102020 <_stack_start+0x19ffa020>
    2c36:	439c                	lw	a5,0(a5)
    2c38:	fef42223          	sw	a5,-28(s0)
    2c3c:	fea45783          	lhu	a5,-22(s0)
    2c40:	01079693          	slli	a3,a5,0x10
    2c44:	86c1                	srai	a3,a3,0x10
    2c46:	4711                	li	a4,4
    2c48:	00d75363          	bge	a4,a3,2c4e <adxl362_interface_spi_read_address16+0x94>
    2c4c:	4791                	li	a5,4
    2c4e:	07c2                	slli	a5,a5,0x10
    2c50:	87c1                	srai	a5,a5,0x10
    2c52:	17fd                	addi	a5,a5,-1
    2c54:	fef42023          	sw	a5,-32(s0)
    2c58:	a035                	j	2c84 <adxl362_interface_spi_read_address16+0xca>
    2c5a:	fe042783          	lw	a5,-32(s0)
    2c5e:	fec42703          	lw	a4,-20(s0)
    2c62:	97ba                	add	a5,a5,a4
    2c64:	fe442703          	lw	a4,-28(s0)
    2c68:	0ff77713          	andi	a4,a4,255
    2c6c:	00e78023          	sb	a4,0(a5)
    2c70:	fe442783          	lw	a5,-28(s0)
    2c74:	83a1                	srli	a5,a5,0x8
    2c76:	fef42223          	sw	a5,-28(s0)
    2c7a:	fe042783          	lw	a5,-32(s0)
    2c7e:	17fd                	addi	a5,a5,-1
    2c80:	fef42023          	sw	a5,-32(s0)
    2c84:	fe042783          	lw	a5,-32(s0)
    2c88:	fc07d9e3          	bgez	a5,2c5a <adxl362_interface_spi_read_address16+0xa0>
    2c8c:	fec42783          	lw	a5,-20(s0)
    2c90:	0791                	addi	a5,a5,4
    2c92:	fef42623          	sw	a5,-20(s0)
    2c96:	fea45783          	lhu	a5,-22(s0)
    2c9a:	17f1                	addi	a5,a5,-4
    2c9c:	07c2                	slli	a5,a5,0x10
    2c9e:	83c1                	srli	a5,a5,0x10
    2ca0:	fef41523          	sh	a5,-22(s0)
    2ca4:	fea41783          	lh	a5,-22(s0)
    2ca8:	f6f04be3          	bgtz	a5,2c1e <adxl362_interface_spi_read_address16+0x64>
    2cac:	0001                	nop
    2cae:	1a1027b7          	lui	a5,0x1a102
    2cb2:	439c                	lw	a5,0(a5)
    2cb4:	8b85                	andi	a5,a5,1
    2cb6:	dfe5                	beqz	a5,2cae <adxl362_interface_spi_read_address16+0xf4>
    2cb8:	fde45703          	lhu	a4,-34(s0)
    2cbc:	fd842783          	lw	a5,-40(s0)
    2cc0:	439c                	lw	a5,0(a5)
    2cc2:	fdc45683          	lhu	a3,-36(s0)
    2cc6:	863e                	mv	a2,a5
    2cc8:	85ba                	mv	a1,a4
    2cca:	001007b7          	lui	a5,0x100
    2cce:	64078513          	addi	a0,a5,1600 # 100640 <__init_array_end+0x640>
    2cd2:	2a4d                	jal	2e84 <adxl362_interface_debug_print>
    2cd4:	4781                	li	a5,0
    2cd6:	853e                	mv	a0,a5
    2cd8:	50b2                	lw	ra,44(sp)
    2cda:	5422                	lw	s0,40(sp)
    2cdc:	6145                	addi	sp,sp,48
    2cde:	8082                	ret

00002ce0 <adxl362_interface_spi_write_address16>:
    2ce0:	7139                	addi	sp,sp,-64
    2ce2:	de06                	sw	ra,60(sp)
    2ce4:	dc22                	sw	s0,56(sp)
    2ce6:	0080                	addi	s0,sp,64
    2ce8:	87aa                	mv	a5,a0
    2cea:	fcb42423          	sw	a1,-56(s0)
    2cee:	8732                	mv	a4,a2
    2cf0:	fcf41723          	sh	a5,-50(s0)
    2cf4:	87ba                	mv	a5,a4
    2cf6:	fcf41623          	sh	a5,-52(s0)
    2cfa:	1a1027b7          	lui	a5,0x1a102
    2cfe:	4741                	li	a4,16
    2d00:	c398                	sw	a4,0(a5)
    2d02:	0001                	nop
    2d04:	1a1027b7          	lui	a5,0x1a102
    2d08:	439c                	lw	a5,0(a5)
    2d0a:	8b85                	andi	a5,a5,1
    2d0c:	dfe5                	beqz	a5,2d04 <adxl362_interface_spi_write_address16+0x24>
    2d0e:	fce45783          	lhu	a5,-50(s0)
    2d12:	4681                	li	a3,0
    2d14:	4601                	li	a2,0
    2d16:	45c1                	li	a1,16
    2d18:	853e                	mv	a0,a5
    2d1a:	aecfe0ef          	jal	ra,1006 <spi_setup_cmd_addr>
    2d1e:	fcc45783          	lhu	a5,-52(s0)
    2d22:	078e                	slli	a5,a5,0x3
    2d24:	853e                	mv	a0,a5
    2d26:	b84fe0ef          	jal	ra,10aa <spi_set_datalen>
    2d2a:	fc842783          	lw	a5,-56(s0)
    2d2e:	fef42623          	sw	a5,-20(s0)
    2d32:	fe041523          	sh	zero,-22(s0)
    2d36:	a8c1                	j	2e06 <adxl362_interface_spi_write_address16+0x126>
    2d38:	0001                	nop
    2d3a:	1a1027b7          	lui	a5,0x1a102
    2d3e:	439c                	lw	a5,0(a5)
    2d40:	87e1                	srai	a5,a5,0x18
    2d42:	0f87f793          	andi	a5,a5,248
    2d46:	fbf5                	bnez	a5,2d3a <adxl362_interface_spi_write_address16+0x5a>
    2d48:	fea45703          	lhu	a4,-22(s0)
    2d4c:	fcc45783          	lhu	a5,-52(s0)
    2d50:	00f77763          	bgeu	a4,a5,2d5e <adxl362_interface_spi_write_address16+0x7e>
    2d54:	fec42783          	lw	a5,-20(s0)
    2d58:	0007c783          	lbu	a5,0(a5) # 1a102000 <_stack_start+0x19ffa000>
    2d5c:	a011                	j	2d60 <adxl362_interface_spi_write_address16+0x80>
    2d5e:	4781                	li	a5,0
    2d60:	fef42223          	sw	a5,-28(s0)
    2d64:	fea45783          	lhu	a5,-22(s0)
    2d68:	00178713          	addi	a4,a5,1
    2d6c:	fcc45783          	lhu	a5,-52(s0)
    2d70:	00f75863          	bge	a4,a5,2d80 <adxl362_interface_spi_write_address16+0xa0>
    2d74:	fec42783          	lw	a5,-20(s0)
    2d78:	0785                	addi	a5,a5,1
    2d7a:	0007c783          	lbu	a5,0(a5)
    2d7e:	a011                	j	2d82 <adxl362_interface_spi_write_address16+0xa2>
    2d80:	4781                	li	a5,0
    2d82:	fef42023          	sw	a5,-32(s0)
    2d86:	fea45783          	lhu	a5,-22(s0)
    2d8a:	00278713          	addi	a4,a5,2
    2d8e:	fcc45783          	lhu	a5,-52(s0)
    2d92:	00f75863          	bge	a4,a5,2da2 <adxl362_interface_spi_write_address16+0xc2>
    2d96:	fec42783          	lw	a5,-20(s0)
    2d9a:	0789                	addi	a5,a5,2
    2d9c:	0007c783          	lbu	a5,0(a5)
    2da0:	a011                	j	2da4 <adxl362_interface_spi_write_address16+0xc4>
    2da2:	4781                	li	a5,0
    2da4:	fcf42e23          	sw	a5,-36(s0)
    2da8:	fea45783          	lhu	a5,-22(s0)
    2dac:	00378713          	addi	a4,a5,3
    2db0:	fcc45783          	lhu	a5,-52(s0)
    2db4:	00f75863          	bge	a4,a5,2dc4 <adxl362_interface_spi_write_address16+0xe4>
    2db8:	fec42783          	lw	a5,-20(s0)
    2dbc:	078d                	addi	a5,a5,3
    2dbe:	0007c783          	lbu	a5,0(a5)
    2dc2:	a011                	j	2dc6 <adxl362_interface_spi_write_address16+0xe6>
    2dc4:	4781                	li	a5,0
    2dc6:	fcf42c23          	sw	a5,-40(s0)
    2dca:	fe442783          	lw	a5,-28(s0)
    2dce:	01879713          	slli	a4,a5,0x18
    2dd2:	fe042783          	lw	a5,-32(s0)
    2dd6:	07c2                	slli	a5,a5,0x10
    2dd8:	8f5d                	or	a4,a4,a5
    2dda:	fdc42783          	lw	a5,-36(s0)
    2dde:	07a2                	slli	a5,a5,0x8
    2de0:	00f766b3          	or	a3,a4,a5
    2de4:	1a1027b7          	lui	a5,0x1a102
    2de8:	07e1                	addi	a5,a5,24
    2dea:	fd842703          	lw	a4,-40(s0)
    2dee:	8f55                	or	a4,a4,a3
    2df0:	c398                	sw	a4,0(a5)
    2df2:	fea45783          	lhu	a5,-22(s0)
    2df6:	0791                	addi	a5,a5,4
    2df8:	fef41523          	sh	a5,-22(s0)
    2dfc:	fec42783          	lw	a5,-20(s0)
    2e00:	0791                	addi	a5,a5,4
    2e02:	fef42623          	sw	a5,-20(s0)
    2e06:	fea45703          	lhu	a4,-22(s0)
    2e0a:	fcc45783          	lhu	a5,-52(s0)
    2e0e:	f2f765e3          	bltu	a4,a5,2d38 <adxl362_interface_spi_write_address16+0x58>
    2e12:	4581                	li	a1,0
    2e14:	4505                	li	a0,1
    2e16:	ad8fe0ef          	jal	ra,10ee <spi_start_transaction>
    2e1a:	0001                	nop
    2e1c:	1a1027b7          	lui	a5,0x1a102
    2e20:	439c                	lw	a5,0(a5)
    2e22:	8b85                	andi	a5,a5,1
    2e24:	dfe5                	beqz	a5,2e1c <adxl362_interface_spi_write_address16+0x13c>
    2e26:	fce45703          	lhu	a4,-50(s0)
    2e2a:	fc842783          	lw	a5,-56(s0)
    2e2e:	439c                	lw	a5,0(a5)
    2e30:	fcc45683          	lhu	a3,-52(s0)
    2e34:	863e                	mv	a2,a5
    2e36:	85ba                	mv	a1,a4
    2e38:	001007b7          	lui	a5,0x100
    2e3c:	67478513          	addi	a0,a5,1652 # 100674 <__init_array_end+0x674>
    2e40:	2091                	jal	2e84 <adxl362_interface_debug_print>
    2e42:	4781                	li	a5,0
    2e44:	853e                	mv	a0,a5
    2e46:	50f2                	lw	ra,60(sp)
    2e48:	5462                	lw	s0,56(sp)
    2e4a:	6121                	addi	sp,sp,64
    2e4c:	8082                	ret

00002e4e <adxl362_interface_delay_ms>:
    2e4e:	7179                	addi	sp,sp,-48
    2e50:	d622                	sw	s0,44(sp)
    2e52:	1800                	addi	s0,sp,48
    2e54:	fca42e23          	sw	a0,-36(s0)
    2e58:	fdc42703          	lw	a4,-36(s0)
    2e5c:	02faf7b7          	lui	a5,0x2faf
    2e60:	08078793          	addi	a5,a5,128 # 2faf080 <_stack_start+0x2ea7080>
    2e64:	02f70733          	mul	a4,a4,a5
    2e68:	7d000793          	li	a5,2000
    2e6c:	02f757b3          	divu	a5,a4,a5
    2e70:	fef42623          	sw	a5,-20(s0)
    2e74:	fec42783          	lw	a5,-20(s0)

00002e78 <wait_loop>:
    2e78:	17fd                	addi	a5,a5,-1
    2e7a:	fffd                	bnez	a5,2e78 <wait_loop>
    2e7c:	0001                	nop
    2e7e:	5432                	lw	s0,44(sp)
    2e80:	6145                	addi	sp,sp,48
    2e82:	8082                	ret

00002e84 <adxl362_interface_debug_print>:
    2e84:	714d                	addi	sp,sp,-336
    2e86:	12112623          	sw	ra,300(sp)
    2e8a:	12812423          	sw	s0,296(sp)
    2e8e:	1a00                	addi	s0,sp,304
    2e90:	eca42e23          	sw	a0,-292(s0)
    2e94:	c04c                	sw	a1,4(s0)
    2e96:	c410                	sw	a2,8(s0)
    2e98:	c454                	sw	a3,12(s0)
    2e9a:	c818                	sw	a4,16(s0)
    2e9c:	c85c                	sw	a5,20(s0)
    2e9e:	01042c23          	sw	a6,24(s0)
    2ea2:	01142e23          	sw	a7,28(s0)
    2ea6:	02040793          	addi	a5,s0,32
    2eaa:	ecf42c23          	sw	a5,-296(s0)
    2eae:	ed842783          	lw	a5,-296(s0)
    2eb2:	1791                	addi	a5,a5,-28
    2eb4:	eef42223          	sw	a5,-284(s0)
    2eb8:	ee442703          	lw	a4,-284(s0)
    2ebc:	ee840793          	addi	a5,s0,-280
    2ec0:	863a                	mv	a2,a4
    2ec2:	edc42583          	lw	a1,-292(s0)
    2ec6:	853e                	mv	a0,a5
    2ec8:	f17fe0ef          	jal	ra,1dde <vsprintf>
    2ecc:	fea42423          	sw	a0,-24(s0)
    2ed0:	fe042623          	sw	zero,-20(s0)
    2ed4:	a005                	j	2ef4 <adxl362_interface_debug_print+0x70>
    2ed6:	fec42783          	lw	a5,-20(s0)
    2eda:	ff040713          	addi	a4,s0,-16
    2ede:	97ba                	add	a5,a5,a4
    2ee0:	ef87c783          	lbu	a5,-264(a5)
    2ee4:	853e                	mv	a0,a5
    2ee6:	f62fe0ef          	jal	ra,1648 <uart_sendchar>
    2eea:	fec42783          	lw	a5,-20(s0)
    2eee:	0785                	addi	a5,a5,1
    2ef0:	fef42623          	sw	a5,-20(s0)
    2ef4:	fec42783          	lw	a5,-20(s0)
    2ef8:	ff040713          	addi	a4,s0,-16
    2efc:	97ba                	add	a5,a5,a4
    2efe:	ef87c783          	lbu	a5,-264(a5)
    2f02:	fbf1                	bnez	a5,2ed6 <adxl362_interface_debug_print+0x52>
    2f04:	f72fe0ef          	jal	ra,1676 <uart_wait_tx_done>
    2f08:	0001                	nop
    2f0a:	12c12083          	lw	ra,300(sp)
    2f0e:	12812403          	lw	s0,296(sp)
    2f12:	6171                	addi	sp,sp,336
    2f14:	8082                	ret

00002f16 <adxl362_interface_receive_callback>:
    2f16:	1101                	addi	sp,sp,-32
    2f18:	ce06                	sw	ra,28(sp)
    2f1a:	cc22                	sw	s0,24(sp)
    2f1c:	1000                	addi	s0,sp,32
    2f1e:	87aa                	mv	a5,a0
    2f20:	fef407a3          	sb	a5,-17(s0)
    2f24:	fef44783          	lbu	a5,-17(s0)
    2f28:	08000713          	li	a4,128
    2f2c:	02e78e63          	beq	a5,a4,2f68 <adxl362_interface_receive_callback+0x52>
    2f30:	08000713          	li	a4,128
    2f34:	08f74a63          	blt	a4,a5,2fc8 <adxl362_interface_receive_callback+0xb2>
    2f38:	02000713          	li	a4,32
    2f3c:	02f74163          	blt	a4,a5,2f5e <adxl362_interface_receive_callback+0x48>
    2f40:	08f05463          	blez	a5,2fc8 <adxl362_interface_receive_callback+0xb2>
    2f44:	02000713          	li	a4,32
    2f48:	08f76063          	bltu	a4,a5,2fc8 <adxl362_interface_receive_callback+0xb2>
    2f4c:	00279713          	slli	a4,a5,0x2
    2f50:	001007b7          	lui	a5,0x100
    2f54:	7a078793          	addi	a5,a5,1952 # 1007a0 <__init_array_end+0x7a0>
    2f58:	97ba                	add	a5,a5,a4
    2f5a:	439c                	lw	a5,0(a5)
    2f5c:	8782                	jr	a5
    2f5e:	04000713          	li	a4,64
    2f62:	00e78963          	beq	a5,a4,2f74 <adxl362_interface_receive_callback+0x5e>
    2f66:	a08d                	j	2fc8 <adxl362_interface_receive_callback+0xb2>
    2f68:	001007b7          	lui	a5,0x100
    2f6c:	6a878513          	addi	a0,a5,1704 # 1006a8 <__init_array_end+0x6a8>
    2f70:	3f11                	jal	2e84 <adxl362_interface_debug_print>
    2f72:	a08d                	j	2fd4 <adxl362_interface_receive_callback+0xbe>
    2f74:	001007b7          	lui	a5,0x100
    2f78:	6c878513          	addi	a0,a5,1736 # 1006c8 <__init_array_end+0x6c8>
    2f7c:	3721                	jal	2e84 <adxl362_interface_debug_print>
    2f7e:	a899                	j	2fd4 <adxl362_interface_receive_callback+0xbe>
    2f80:	001007b7          	lui	a5,0x100
    2f84:	6e078513          	addi	a0,a5,1760 # 1006e0 <__init_array_end+0x6e0>
    2f88:	3df5                	jal	2e84 <adxl362_interface_debug_print>
    2f8a:	a0a9                	j	2fd4 <adxl362_interface_receive_callback+0xbe>
    2f8c:	001007b7          	lui	a5,0x100
    2f90:	6fc78513          	addi	a0,a5,1788 # 1006fc <__init_array_end+0x6fc>
    2f94:	3dc5                	jal	2e84 <adxl362_interface_debug_print>
    2f96:	a83d                	j	2fd4 <adxl362_interface_receive_callback+0xbe>
    2f98:	001007b7          	lui	a5,0x100
    2f9c:	71478513          	addi	a0,a5,1812 # 100714 <__init_array_end+0x714>
    2fa0:	35d5                	jal	2e84 <adxl362_interface_debug_print>
    2fa2:	a80d                	j	2fd4 <adxl362_interface_receive_callback+0xbe>
    2fa4:	001007b7          	lui	a5,0x100
    2fa8:	73078513          	addi	a0,a5,1840 # 100730 <__init_array_end+0x730>
    2fac:	3de1                	jal	2e84 <adxl362_interface_debug_print>
    2fae:	a01d                	j	2fd4 <adxl362_interface_receive_callback+0xbe>
    2fb0:	001007b7          	lui	a5,0x100
    2fb4:	75078513          	addi	a0,a5,1872 # 100750 <__init_array_end+0x750>
    2fb8:	35f1                	jal	2e84 <adxl362_interface_debug_print>
    2fba:	a829                	j	2fd4 <adxl362_interface_receive_callback+0xbe>
    2fbc:	001007b7          	lui	a5,0x100
    2fc0:	76c78513          	addi	a0,a5,1900 # 10076c <__init_array_end+0x76c>
    2fc4:	35c1                	jal	2e84 <adxl362_interface_debug_print>
    2fc6:	a039                	j	2fd4 <adxl362_interface_receive_callback+0xbe>
    2fc8:	001007b7          	lui	a5,0x100
    2fcc:	78878513          	addi	a0,a5,1928 # 100788 <__init_array_end+0x788>
    2fd0:	3d55                	jal	2e84 <adxl362_interface_debug_print>
    2fd2:	0001                	nop
    2fd4:	0001                	nop
    2fd6:	40f2                	lw	ra,28(sp)
    2fd8:	4462                	lw	s0,24(sp)
    2fda:	6105                	addi	sp,sp,32
    2fdc:	8082                	ret

00002fde <a_adxl362_read>:
    2fde:	1101                	addi	sp,sp,-32
    2fe0:	ce06                	sw	ra,28(sp)
    2fe2:	cc22                	sw	s0,24(sp)
    2fe4:	1000                	addi	s0,sp,32
    2fe6:	fea42623          	sw	a0,-20(s0)
    2fea:	87ae                	mv	a5,a1
    2fec:	fec42223          	sw	a2,-28(s0)
    2ff0:	8736                	mv	a4,a3
    2ff2:	fef405a3          	sb	a5,-21(s0)
    2ff6:	87ba                	mv	a5,a4
    2ff8:	fef41423          	sh	a5,-24(s0)
    2ffc:	fec42783          	lw	a5,-20(s0)
    3000:	47d4                	lw	a3,12(a5)
    3002:	feb44783          	lbu	a5,-21(s0)
    3006:	01079713          	slli	a4,a5,0x10
    300a:	8741                	srai	a4,a4,0x10
    300c:	6785                	lui	a5,0x1
    300e:	b0078793          	addi	a5,a5,-1280 # b00 <main+0x10a>
    3012:	8fd9                	or	a5,a5,a4
    3014:	07c2                	slli	a5,a5,0x10
    3016:	87c1                	srai	a5,a5,0x10
    3018:	07c2                	slli	a5,a5,0x10
    301a:	83c1                	srli	a5,a5,0x10
    301c:	fe845703          	lhu	a4,-24(s0)
    3020:	863a                	mv	a2,a4
    3022:	fe442583          	lw	a1,-28(s0)
    3026:	853e                	mv	a0,a5
    3028:	9682                	jalr	a3
    302a:	87aa                	mv	a5,a0
    302c:	c399                	beqz	a5,3032 <a_adxl362_read+0x54>
    302e:	4785                	li	a5,1
    3030:	a011                	j	3034 <a_adxl362_read+0x56>
    3032:	4781                	li	a5,0
    3034:	853e                	mv	a0,a5
    3036:	40f2                	lw	ra,28(sp)
    3038:	4462                	lw	s0,24(sp)
    303a:	6105                	addi	sp,sp,32
    303c:	8082                	ret

0000303e <a_adxl362_write>:
    303e:	1101                	addi	sp,sp,-32
    3040:	ce06                	sw	ra,28(sp)
    3042:	cc22                	sw	s0,24(sp)
    3044:	1000                	addi	s0,sp,32
    3046:	fea42623          	sw	a0,-20(s0)
    304a:	87ae                	mv	a5,a1
    304c:	fec42223          	sw	a2,-28(s0)
    3050:	8736                	mv	a4,a3
    3052:	fef405a3          	sb	a5,-21(s0)
    3056:	87ba                	mv	a5,a4
    3058:	fef41423          	sh	a5,-24(s0)
    305c:	fec42783          	lw	a5,-20(s0)
    3060:	4b94                	lw	a3,16(a5)
    3062:	feb44783          	lbu	a5,-21(s0)
    3066:	01079713          	slli	a4,a5,0x10
    306a:	8741                	srai	a4,a4,0x10
    306c:	6785                	lui	a5,0x1
    306e:	a0078793          	addi	a5,a5,-1536 # a00 <main+0xa>
    3072:	8fd9                	or	a5,a5,a4
    3074:	07c2                	slli	a5,a5,0x10
    3076:	87c1                	srai	a5,a5,0x10
    3078:	07c2                	slli	a5,a5,0x10
    307a:	83c1                	srli	a5,a5,0x10
    307c:	fe845703          	lhu	a4,-24(s0)
    3080:	863a                	mv	a2,a4
    3082:	fe442583          	lw	a1,-28(s0)
    3086:	853e                	mv	a0,a5
    3088:	9682                	jalr	a3
    308a:	87aa                	mv	a5,a0
    308c:	c399                	beqz	a5,3092 <a_adxl362_write+0x54>
    308e:	4785                	li	a5,1
    3090:	a011                	j	3094 <a_adxl362_write+0x56>
    3092:	4781                	li	a5,0
    3094:	853e                	mv	a0,a5
    3096:	40f2                	lw	ra,28(sp)
    3098:	4462                	lw	s0,24(sp)
    309a:	6105                	addi	sp,sp,32
    309c:	8082                	ret

0000309e <a_adxl362_read_fifo>:
    309e:	1101                	addi	sp,sp,-32
    30a0:	ce06                	sw	ra,28(sp)
    30a2:	cc22                	sw	s0,24(sp)
    30a4:	1000                	addi	s0,sp,32
    30a6:	fea42623          	sw	a0,-20(s0)
    30aa:	feb42423          	sw	a1,-24(s0)
    30ae:	87b2                	mv	a5,a2
    30b0:	fef41323          	sh	a5,-26(s0)
    30b4:	fec42783          	lw	a5,-20(s0)
    30b8:	4798                	lw	a4,8(a5)
    30ba:	fe645783          	lhu	a5,-26(s0)
    30be:	863e                	mv	a2,a5
    30c0:	fe842583          	lw	a1,-24(s0)
    30c4:	4535                	li	a0,13
    30c6:	9702                	jalr	a4
    30c8:	87aa                	mv	a5,a0
    30ca:	c399                	beqz	a5,30d0 <a_adxl362_read_fifo+0x32>
    30cc:	4785                	li	a5,1
    30ce:	a011                	j	30d2 <a_adxl362_read_fifo+0x34>
    30d0:	4781                	li	a5,0
    30d2:	853e                	mv	a0,a5
    30d4:	40f2                	lw	ra,28(sp)
    30d6:	4462                	lw	s0,24(sp)
    30d8:	6105                	addi	sp,sp,32
    30da:	8082                	ret

000030dc <adxl362_get_revision>:
    30dc:	7179                	addi	sp,sp,-48
    30de:	d606                	sw	ra,44(sp)
    30e0:	d422                	sw	s0,40(sp)
    30e2:	1800                	addi	s0,sp,48
    30e4:	fca42e23          	sw	a0,-36(s0)
    30e8:	fcb42c23          	sw	a1,-40(s0)
    30ec:	fdc42783          	lw	a5,-36(s0)
    30f0:	e399                	bnez	a5,30f6 <adxl362_get_revision+0x1a>
    30f2:	4789                	li	a5,2
    30f4:	a091                	j	3138 <adxl362_get_revision+0x5c>
    30f6:	fdc42783          	lw	a5,-36(s0)
    30fa:	0207c703          	lbu	a4,32(a5)
    30fe:	4785                	li	a5,1
    3100:	00f70463          	beq	a4,a5,3108 <adxl362_get_revision+0x2c>
    3104:	478d                	li	a5,3
    3106:	a80d                	j	3138 <adxl362_get_revision+0x5c>
    3108:	4685                	li	a3,1
    310a:	fd842603          	lw	a2,-40(s0)
    310e:	458d                	li	a1,3
    3110:	fdc42503          	lw	a0,-36(s0)
    3114:	35e9                	jal	2fde <a_adxl362_read>
    3116:	87aa                	mv	a5,a0
    3118:	fef407a3          	sb	a5,-17(s0)
    311c:	fef44783          	lbu	a5,-17(s0)
    3120:	cb99                	beqz	a5,3136 <adxl362_get_revision+0x5a>
    3122:	fdc42783          	lw	a5,-36(s0)
    3126:	4fd8                	lw	a4,28(a5)
    3128:	001017b7          	lui	a5,0x101
    312c:	82878513          	addi	a0,a5,-2008 # 100828 <__init_array_end+0x828>
    3130:	9702                	jalr	a4
    3132:	4785                	li	a5,1
    3134:	a011                	j	3138 <adxl362_get_revision+0x5c>
    3136:	4781                	li	a5,0
    3138:	853e                	mv	a0,a5
    313a:	50b2                	lw	ra,44(sp)
    313c:	5422                	lw	s0,40(sp)
    313e:	6145                	addi	sp,sp,48
    3140:	8082                	ret

00003142 <adxl362_init>:
    3142:	7179                	addi	sp,sp,-48
    3144:	d606                	sw	ra,44(sp)
    3146:	d422                	sw	s0,40(sp)
    3148:	1800                	addi	s0,sp,48
    314a:	fca42e23          	sw	a0,-36(s0)
    314e:	fdc42783          	lw	a5,-36(s0)
    3152:	e399                	bnez	a5,3158 <adxl362_init+0x16>
    3154:	4789                	li	a5,2
    3156:	a499                	j	339c <adxl362_init+0x25a>
    3158:	fdc42783          	lw	a5,-36(s0)
    315c:	4fdc                	lw	a5,28(a5)
    315e:	e399                	bnez	a5,3164 <adxl362_init+0x22>
    3160:	478d                	li	a5,3
    3162:	ac2d                	j	339c <adxl362_init+0x25a>
    3164:	fdc42783          	lw	a5,-36(s0)
    3168:	439c                	lw	a5,0(a5)
    316a:	eb99                	bnez	a5,3180 <adxl362_init+0x3e>
    316c:	fdc42783          	lw	a5,-36(s0)
    3170:	4fd8                	lw	a4,28(a5)
    3172:	001017b7          	lui	a5,0x101
    3176:	84c78513          	addi	a0,a5,-1972 # 10084c <__init_array_end+0x84c>
    317a:	9702                	jalr	a4
    317c:	478d                	li	a5,3
    317e:	ac39                	j	339c <adxl362_init+0x25a>
    3180:	fdc42783          	lw	a5,-36(s0)
    3184:	43dc                	lw	a5,4(a5)
    3186:	eb99                	bnez	a5,319c <adxl362_init+0x5a>
    3188:	fdc42783          	lw	a5,-36(s0)
    318c:	4fd8                	lw	a4,28(a5)
    318e:	001017b7          	lui	a5,0x101
    3192:	86878513          	addi	a0,a5,-1944 # 100868 <__init_array_end+0x868>
    3196:	9702                	jalr	a4
    3198:	478d                	li	a5,3
    319a:	a409                	j	339c <adxl362_init+0x25a>
    319c:	fdc42783          	lw	a5,-36(s0)
    31a0:	479c                	lw	a5,8(a5)
    31a2:	eb99                	bnez	a5,31b8 <adxl362_init+0x76>
    31a4:	fdc42783          	lw	a5,-36(s0)
    31a8:	4fd8                	lw	a4,28(a5)
    31aa:	001017b7          	lui	a5,0x101
    31ae:	88878513          	addi	a0,a5,-1912 # 100888 <__init_array_end+0x888>
    31b2:	9702                	jalr	a4
    31b4:	478d                	li	a5,3
    31b6:	a2dd                	j	339c <adxl362_init+0x25a>
    31b8:	fdc42783          	lw	a5,-36(s0)
    31bc:	47dc                	lw	a5,12(a5)
    31be:	eb99                	bnez	a5,31d4 <adxl362_init+0x92>
    31c0:	fdc42783          	lw	a5,-36(s0)
    31c4:	4fd8                	lw	a4,28(a5)
    31c6:	001017b7          	lui	a5,0x101
    31ca:	8a478513          	addi	a0,a5,-1884 # 1008a4 <__init_array_end+0x8a4>
    31ce:	9702                	jalr	a4
    31d0:	478d                	li	a5,3
    31d2:	a2e9                	j	339c <adxl362_init+0x25a>
    31d4:	fdc42783          	lw	a5,-36(s0)
    31d8:	4b9c                	lw	a5,16(a5)
    31da:	eb99                	bnez	a5,31f0 <adxl362_init+0xae>
    31dc:	fdc42783          	lw	a5,-36(s0)
    31e0:	4fd8                	lw	a4,28(a5)
    31e2:	001017b7          	lui	a5,0x101
    31e6:	8cc78513          	addi	a0,a5,-1844 # 1008cc <__init_array_end+0x8cc>
    31ea:	9702                	jalr	a4
    31ec:	478d                	li	a5,3
    31ee:	a27d                	j	339c <adxl362_init+0x25a>
    31f0:	fdc42783          	lw	a5,-36(s0)
    31f4:	4f9c                	lw	a5,24(a5)
    31f6:	eb99                	bnez	a5,320c <adxl362_init+0xca>
    31f8:	fdc42783          	lw	a5,-36(s0)
    31fc:	4fd8                	lw	a4,28(a5)
    31fe:	001017b7          	lui	a5,0x101
    3202:	8f478513          	addi	a0,a5,-1804 # 1008f4 <__init_array_end+0x8f4>
    3206:	9702                	jalr	a4
    3208:	478d                	li	a5,3
    320a:	aa49                	j	339c <adxl362_init+0x25a>
    320c:	fdc42783          	lw	a5,-36(s0)
    3210:	4bdc                	lw	a5,20(a5)
    3212:	eb99                	bnez	a5,3228 <adxl362_init+0xe6>
    3214:	fdc42783          	lw	a5,-36(s0)
    3218:	4fd8                	lw	a4,28(a5)
    321a:	001017b7          	lui	a5,0x101
    321e:	91078513          	addi	a0,a5,-1776 # 100910 <__init_array_end+0x910>
    3222:	9702                	jalr	a4
    3224:	478d                	li	a5,3
    3226:	aa9d                	j	339c <adxl362_init+0x25a>
    3228:	fdc42783          	lw	a5,-36(s0)
    322c:	439c                	lw	a5,0(a5)
    322e:	9782                	jalr	a5
    3230:	87aa                	mv	a5,a0
    3232:	cb99                	beqz	a5,3248 <adxl362_init+0x106>
    3234:	fdc42783          	lw	a5,-36(s0)
    3238:	4fd8                	lw	a4,28(a5)
    323a:	001017b7          	lui	a5,0x101
    323e:	93478513          	addi	a0,a5,-1740 # 100934 <__init_array_end+0x934>
    3242:	9702                	jalr	a4
    3244:	4785                	li	a5,1
    3246:	aa99                	j	339c <adxl362_init+0x25a>
    3248:	fef40793          	addi	a5,s0,-17
    324c:	4685                	li	a3,1
    324e:	863e                	mv	a2,a5
    3250:	4581                	li	a1,0
    3252:	fdc42503          	lw	a0,-36(s0)
    3256:	3361                	jal	2fde <a_adxl362_read>
    3258:	87aa                	mv	a5,a0
    325a:	cf99                	beqz	a5,3278 <adxl362_init+0x136>
    325c:	fdc42783          	lw	a5,-36(s0)
    3260:	4fd8                	lw	a4,28(a5)
    3262:	001017b7          	lui	a5,0x101
    3266:	95078513          	addi	a0,a5,-1712 # 100950 <__init_array_end+0x950>
    326a:	9702                	jalr	a4
    326c:	fdc42783          	lw	a5,-36(s0)
    3270:	43dc                	lw	a5,4(a5)
    3272:	9782                	jalr	a5
    3274:	4791                	li	a5,4
    3276:	a21d                	j	339c <adxl362_init+0x25a>
    3278:	fef44703          	lbu	a4,-17(s0)
    327c:	0ad00793          	li	a5,173
    3280:	02f70063          	beq	a4,a5,32a0 <adxl362_init+0x15e>
    3284:	fdc42783          	lw	a5,-36(s0)
    3288:	4fd8                	lw	a4,28(a5)
    328a:	001017b7          	lui	a5,0x101
    328e:	96878513          	addi	a0,a5,-1688 # 100968 <__init_array_end+0x968>
    3292:	9702                	jalr	a4
    3294:	fdc42783          	lw	a5,-36(s0)
    3298:	43dc                	lw	a5,4(a5)
    329a:	9782                	jalr	a5
    329c:	4791                	li	a5,4
    329e:	a8fd                	j	339c <adxl362_init+0x25a>
    32a0:	fef40793          	addi	a5,s0,-17
    32a4:	4685                	li	a3,1
    32a6:	863e                	mv	a2,a5
    32a8:	4585                	li	a1,1
    32aa:	fdc42503          	lw	a0,-36(s0)
    32ae:	3b05                	jal	2fde <a_adxl362_read>
    32b0:	87aa                	mv	a5,a0
    32b2:	cf99                	beqz	a5,32d0 <adxl362_init+0x18e>
    32b4:	fdc42783          	lw	a5,-36(s0)
    32b8:	4fd8                	lw	a4,28(a5)
    32ba:	001017b7          	lui	a5,0x101
    32be:	95078513          	addi	a0,a5,-1712 # 100950 <__init_array_end+0x950>
    32c2:	9702                	jalr	a4
    32c4:	fdc42783          	lw	a5,-36(s0)
    32c8:	43dc                	lw	a5,4(a5)
    32ca:	9782                	jalr	a5
    32cc:	4791                	li	a5,4
    32ce:	a0f9                	j	339c <adxl362_init+0x25a>
    32d0:	fef44703          	lbu	a4,-17(s0)
    32d4:	47f5                	li	a5,29
    32d6:	02f70063          	beq	a4,a5,32f6 <adxl362_init+0x1b4>
    32da:	fdc42783          	lw	a5,-36(s0)
    32de:	4fd8                	lw	a4,28(a5)
    32e0:	001017b7          	lui	a5,0x101
    32e4:	96878513          	addi	a0,a5,-1688 # 100968 <__init_array_end+0x968>
    32e8:	9702                	jalr	a4
    32ea:	fdc42783          	lw	a5,-36(s0)
    32ee:	43dc                	lw	a5,4(a5)
    32f0:	9782                	jalr	a5
    32f2:	4791                	li	a5,4
    32f4:	a065                	j	339c <adxl362_init+0x25a>
    32f6:	fef40793          	addi	a5,s0,-17
    32fa:	4685                	li	a3,1
    32fc:	863e                	mv	a2,a5
    32fe:	4589                	li	a1,2
    3300:	fdc42503          	lw	a0,-36(s0)
    3304:	39e9                	jal	2fde <a_adxl362_read>
    3306:	87aa                	mv	a5,a0
    3308:	cf99                	beqz	a5,3326 <adxl362_init+0x1e4>
    330a:	fdc42783          	lw	a5,-36(s0)
    330e:	4fd8                	lw	a4,28(a5)
    3310:	001017b7          	lui	a5,0x101
    3314:	95078513          	addi	a0,a5,-1712 # 100950 <__init_array_end+0x950>
    3318:	9702                	jalr	a4
    331a:	fdc42783          	lw	a5,-36(s0)
    331e:	43dc                	lw	a5,4(a5)
    3320:	9782                	jalr	a5
    3322:	4791                	li	a5,4
    3324:	a8a5                	j	339c <adxl362_init+0x25a>
    3326:	fef44703          	lbu	a4,-17(s0)
    332a:	0f200793          	li	a5,242
    332e:	02f70063          	beq	a4,a5,334e <adxl362_init+0x20c>
    3332:	fdc42783          	lw	a5,-36(s0)
    3336:	4fd8                	lw	a4,28(a5)
    3338:	001017b7          	lui	a5,0x101
    333c:	96878513          	addi	a0,a5,-1688 # 100968 <__init_array_end+0x968>
    3340:	9702                	jalr	a4
    3342:	fdc42783          	lw	a5,-36(s0)
    3346:	43dc                	lw	a5,4(a5)
    3348:	9782                	jalr	a5
    334a:	4791                	li	a5,4
    334c:	a881                	j	339c <adxl362_init+0x25a>
    334e:	05200793          	li	a5,82
    3352:	fef40723          	sb	a5,-18(s0)
    3356:	fee40793          	addi	a5,s0,-18
    335a:	4685                	li	a3,1
    335c:	863e                	mv	a2,a5
    335e:	45fd                	li	a1,31
    3360:	fdc42503          	lw	a0,-36(s0)
    3364:	39e9                	jal	303e <a_adxl362_write>
    3366:	87aa                	mv	a5,a0
    3368:	cf99                	beqz	a5,3386 <adxl362_init+0x244>
    336a:	fdc42783          	lw	a5,-36(s0)
    336e:	4fd8                	lw	a4,28(a5)
    3370:	001017b7          	lui	a5,0x101
    3374:	98478513          	addi	a0,a5,-1660 # 100984 <__init_array_end+0x984>
    3378:	9702                	jalr	a4
    337a:	fdc42783          	lw	a5,-36(s0)
    337e:	43dc                	lw	a5,4(a5)
    3380:	9782                	jalr	a5
    3382:	4795                	li	a5,5
    3384:	a821                	j	339c <adxl362_init+0x25a>
    3386:	fdc42783          	lw	a5,-36(s0)
    338a:	4f9c                	lw	a5,24(a5)
    338c:	4509                	li	a0,2
    338e:	9782                	jalr	a5
    3390:	fdc42783          	lw	a5,-36(s0)
    3394:	4705                	li	a4,1
    3396:	02e78023          	sb	a4,32(a5)
    339a:	4781                	li	a5,0
    339c:	853e                	mv	a0,a5
    339e:	50b2                	lw	ra,44(sp)
    33a0:	5422                	lw	s0,40(sp)
    33a2:	6145                	addi	sp,sp,48
    33a4:	8082                	ret

000033a6 <adxl362_deinit>:
    33a6:	7179                	addi	sp,sp,-48
    33a8:	d606                	sw	ra,44(sp)
    33aa:	d422                	sw	s0,40(sp)
    33ac:	1800                	addi	s0,sp,48
    33ae:	fca42e23          	sw	a0,-36(s0)
    33b2:	fdc42783          	lw	a5,-36(s0)
    33b6:	e399                	bnez	a5,33bc <adxl362_deinit+0x16>
    33b8:	4789                	li	a5,2
    33ba:	a065                	j	3462 <adxl362_deinit+0xbc>
    33bc:	fdc42783          	lw	a5,-36(s0)
    33c0:	0207c703          	lbu	a4,32(a5)
    33c4:	4785                	li	a5,1
    33c6:	00f70463          	beq	a4,a5,33ce <adxl362_deinit+0x28>
    33ca:	478d                	li	a5,3
    33cc:	a859                	j	3462 <adxl362_deinit+0xbc>
    33ce:	fee40793          	addi	a5,s0,-18
    33d2:	4685                	li	a3,1
    33d4:	863e                	mv	a2,a5
    33d6:	02d00593          	li	a1,45
    33da:	fdc42503          	lw	a0,-36(s0)
    33de:	3101                	jal	2fde <a_adxl362_read>
    33e0:	87aa                	mv	a5,a0
    33e2:	fef407a3          	sb	a5,-17(s0)
    33e6:	fef44783          	lbu	a5,-17(s0)
    33ea:	cb99                	beqz	a5,3400 <adxl362_deinit+0x5a>
    33ec:	fdc42783          	lw	a5,-36(s0)
    33f0:	4fd8                	lw	a4,28(a5)
    33f2:	001017b7          	lui	a5,0x101
    33f6:	9a478513          	addi	a0,a5,-1628 # 1009a4 <__init_array_end+0x9a4>
    33fa:	9702                	jalr	a4
    33fc:	4791                	li	a5,4
    33fe:	a095                	j	3462 <adxl362_deinit+0xbc>
    3400:	fee44783          	lbu	a5,-18(s0)
    3404:	9bf1                	andi	a5,a5,-4
    3406:	0ff7f793          	andi	a5,a5,255
    340a:	fef40723          	sb	a5,-18(s0)
    340e:	fee40793          	addi	a5,s0,-18
    3412:	4685                	li	a3,1
    3414:	863e                	mv	a2,a5
    3416:	02d00593          	li	a1,45
    341a:	fdc42503          	lw	a0,-36(s0)
    341e:	3105                	jal	303e <a_adxl362_write>
    3420:	87aa                	mv	a5,a0
    3422:	fef407a3          	sb	a5,-17(s0)
    3426:	fef44783          	lbu	a5,-17(s0)
    342a:	cb99                	beqz	a5,3440 <adxl362_deinit+0x9a>
    342c:	fdc42783          	lw	a5,-36(s0)
    3430:	4fd8                	lw	a4,28(a5)
    3432:	001017b7          	lui	a5,0x101
    3436:	9cc78513          	addi	a0,a5,-1588 # 1009cc <__init_array_end+0x9cc>
    343a:	9702                	jalr	a4
    343c:	4791                	li	a5,4
    343e:	a015                	j	3462 <adxl362_deinit+0xbc>
    3440:	fdc42783          	lw	a5,-36(s0)
    3444:	43dc                	lw	a5,4(a5)
    3446:	9782                	jalr	a5
    3448:	87aa                	mv	a5,a0
    344a:	fef407a3          	sb	a5,-17(s0)
    344e:	fef44783          	lbu	a5,-17(s0)
    3452:	c399                	beqz	a5,3458 <adxl362_deinit+0xb2>
    3454:	4785                	li	a5,1
    3456:	a031                	j	3462 <adxl362_deinit+0xbc>
    3458:	fdc42783          	lw	a5,-36(s0)
    345c:	02078023          	sb	zero,32(a5)
    3460:	4781                	li	a5,0
    3462:	853e                	mv	a0,a5
    3464:	50b2                	lw	ra,44(sp)
    3466:	5422                	lw	s0,40(sp)
    3468:	6145                	addi	sp,sp,48
    346a:	8082                	ret

0000346c <adxl362_read_8msb>:
    346c:	7179                	addi	sp,sp,-48
    346e:	d606                	sw	ra,44(sp)
    3470:	d422                	sw	s0,40(sp)
    3472:	d226                	sw	s1,36(sp)
    3474:	1800                	addi	s0,sp,48
    3476:	fca42e23          	sw	a0,-36(s0)
    347a:	fcb42c23          	sw	a1,-40(s0)
    347e:	fcc42a23          	sw	a2,-44(s0)
    3482:	fdc42783          	lw	a5,-36(s0)
    3486:	e399                	bnez	a5,348c <adxl362_read_8msb+0x20>
    3488:	4789                	li	a5,2
    348a:	a4fd                	j	3778 <adxl362_read_8msb+0x30c>
    348c:	fdc42783          	lw	a5,-36(s0)
    3490:	0207c703          	lbu	a4,32(a5)
    3494:	4785                	li	a5,1
    3496:	00f70463          	beq	a4,a5,349e <adxl362_read_8msb+0x32>
    349a:	478d                	li	a5,3
    349c:	acf1                	j	3778 <adxl362_read_8msb+0x30c>
    349e:	fed40793          	addi	a5,s0,-19
    34a2:	4685                	li	a3,1
    34a4:	863e                	mv	a2,a5
    34a6:	02c00593          	li	a1,44
    34aa:	fdc42503          	lw	a0,-36(s0)
    34ae:	3e05                	jal	2fde <a_adxl362_read>
    34b0:	87aa                	mv	a5,a0
    34b2:	fef407a3          	sb	a5,-17(s0)
    34b6:	fef44783          	lbu	a5,-17(s0)
    34ba:	cb99                	beqz	a5,34d0 <adxl362_read_8msb+0x64>
    34bc:	fdc42783          	lw	a5,-36(s0)
    34c0:	4fd8                	lw	a4,28(a5)
    34c2:	001017b7          	lui	a5,0x101
    34c6:	9f478513          	addi	a0,a5,-1548 # 1009f4 <__init_array_end+0x9f4>
    34ca:	9702                	jalr	a4
    34cc:	4785                	li	a5,1
    34ce:	a46d                	j	3778 <adxl362_read_8msb+0x30c>
    34d0:	fe840793          	addi	a5,s0,-24
    34d4:	468d                	li	a3,3
    34d6:	863e                	mv	a2,a5
    34d8:	45a1                	li	a1,8
    34da:	fdc42503          	lw	a0,-36(s0)
    34de:	3601                	jal	2fde <a_adxl362_read>
    34e0:	87aa                	mv	a5,a0
    34e2:	fef407a3          	sb	a5,-17(s0)
    34e6:	fef44783          	lbu	a5,-17(s0)
    34ea:	cb99                	beqz	a5,3500 <adxl362_read_8msb+0x94>
    34ec:	fdc42783          	lw	a5,-36(s0)
    34f0:	4fd8                	lw	a4,28(a5)
    34f2:	001017b7          	lui	a5,0x101
    34f6:	a1478513          	addi	a0,a5,-1516 # 100a14 <__init_array_end+0xa14>
    34fa:	9702                	jalr	a4
    34fc:	4785                	li	a5,1
    34fe:	acad                	j	3778 <adxl362_read_8msb+0x30c>
    3500:	fe844783          	lbu	a5,-24(s0)
    3504:	01879713          	slli	a4,a5,0x18
    3508:	8761                	srai	a4,a4,0x18
    350a:	fd842783          	lw	a5,-40(s0)
    350e:	00e78023          	sb	a4,0(a5)
    3512:	fe944703          	lbu	a4,-23(s0)
    3516:	fd842783          	lw	a5,-40(s0)
    351a:	0785                	addi	a5,a5,1
    351c:	0762                	slli	a4,a4,0x18
    351e:	8761                	srai	a4,a4,0x18
    3520:	00e78023          	sb	a4,0(a5)
    3524:	fea44703          	lbu	a4,-22(s0)
    3528:	fd842783          	lw	a5,-40(s0)
    352c:	0789                	addi	a5,a5,2
    352e:	0762                	slli	a4,a4,0x18
    3530:	8761                	srai	a4,a4,0x18
    3532:	00e78023          	sb	a4,0(a5)
    3536:	fed44783          	lbu	a5,-19(s0)
    353a:	8399                	srli	a5,a5,0x6
    353c:	fef40723          	sb	a5,-18(s0)
    3540:	fee44783          	lbu	a5,-18(s0)
    3544:	efcd                	bnez	a5,35fe <adxl362_read_8msb+0x192>
    3546:	fd842783          	lw	a5,-40(s0)
    354a:	00078783          	lb	a5,0(a5)
    354e:	853e                	mv	a0,a5
    3550:	270070ef          	jal	ra,a7c0 <__floatsisf>
    3554:	872a                	mv	a4,a0
    3556:	001017b7          	lui	a5,0x101
    355a:	f007a583          	lw	a1,-256(a5) # 100f00 <__init_array_end+0xf00>
    355e:	853a                	mv	a0,a4
    3560:	1d5060ef          	jal	ra,9f34 <__mulsf3>
    3564:	87aa                	mv	a5,a0
    3566:	873e                	mv	a4,a5
    3568:	001017b7          	lui	a5,0x101
    356c:	f047a583          	lw	a1,-252(a5) # 100f04 <__init_array_end+0xf04>
    3570:	853a                	mv	a0,a4
    3572:	526060ef          	jal	ra,9a98 <__divsf3>
    3576:	87aa                	mv	a5,a0
    3578:	873e                	mv	a4,a5
    357a:	fd442783          	lw	a5,-44(s0)
    357e:	c398                	sw	a4,0(a5)
    3580:	fd842783          	lw	a5,-40(s0)
    3584:	0785                	addi	a5,a5,1
    3586:	00078783          	lb	a5,0(a5)
    358a:	853e                	mv	a0,a5
    358c:	234070ef          	jal	ra,a7c0 <__floatsisf>
    3590:	872a                	mv	a4,a0
    3592:	001017b7          	lui	a5,0x101
    3596:	f007a583          	lw	a1,-256(a5) # 100f00 <__init_array_end+0xf00>
    359a:	853a                	mv	a0,a4
    359c:	199060ef          	jal	ra,9f34 <__mulsf3>
    35a0:	87aa                	mv	a5,a0
    35a2:	873e                	mv	a4,a5
    35a4:	fd442783          	lw	a5,-44(s0)
    35a8:	00478493          	addi	s1,a5,4
    35ac:	001017b7          	lui	a5,0x101
    35b0:	f047a583          	lw	a1,-252(a5) # 100f04 <__init_array_end+0xf04>
    35b4:	853a                	mv	a0,a4
    35b6:	4e2060ef          	jal	ra,9a98 <__divsf3>
    35ba:	87aa                	mv	a5,a0
    35bc:	c09c                	sw	a5,0(s1)
    35be:	fd842783          	lw	a5,-40(s0)
    35c2:	0789                	addi	a5,a5,2
    35c4:	00078783          	lb	a5,0(a5)
    35c8:	853e                	mv	a0,a5
    35ca:	1f6070ef          	jal	ra,a7c0 <__floatsisf>
    35ce:	872a                	mv	a4,a0
    35d0:	001017b7          	lui	a5,0x101
    35d4:	f007a583          	lw	a1,-256(a5) # 100f00 <__init_array_end+0xf00>
    35d8:	853a                	mv	a0,a4
    35da:	15b060ef          	jal	ra,9f34 <__mulsf3>
    35de:	87aa                	mv	a5,a0
    35e0:	873e                	mv	a4,a5
    35e2:	fd442783          	lw	a5,-44(s0)
    35e6:	00878493          	addi	s1,a5,8
    35ea:	001017b7          	lui	a5,0x101
    35ee:	f047a583          	lw	a1,-252(a5) # 100f04 <__init_array_end+0xf04>
    35f2:	853a                	mv	a0,a4
    35f4:	4a4060ef          	jal	ra,9a98 <__divsf3>
    35f8:	87aa                	mv	a5,a0
    35fa:	c09c                	sw	a5,0(s1)
    35fc:	aaad                	j	3776 <adxl362_read_8msb+0x30a>
    35fe:	fee44703          	lbu	a4,-18(s0)
    3602:	4785                	li	a5,1
    3604:	0af71e63          	bne	a4,a5,36c0 <adxl362_read_8msb+0x254>
    3608:	fd842783          	lw	a5,-40(s0)
    360c:	00078783          	lb	a5,0(a5)
    3610:	853e                	mv	a0,a5
    3612:	1ae070ef          	jal	ra,a7c0 <__floatsisf>
    3616:	872a                	mv	a4,a0
    3618:	001017b7          	lui	a5,0x101
    361c:	f007a583          	lw	a1,-256(a5) # 100f00 <__init_array_end+0xf00>
    3620:	853a                	mv	a0,a4
    3622:	113060ef          	jal	ra,9f34 <__mulsf3>
    3626:	87aa                	mv	a5,a0
    3628:	873e                	mv	a4,a5
    362a:	001017b7          	lui	a5,0x101
    362e:	f087a583          	lw	a1,-248(a5) # 100f08 <__init_array_end+0xf08>
    3632:	853a                	mv	a0,a4
    3634:	464060ef          	jal	ra,9a98 <__divsf3>
    3638:	87aa                	mv	a5,a0
    363a:	873e                	mv	a4,a5
    363c:	fd442783          	lw	a5,-44(s0)
    3640:	c398                	sw	a4,0(a5)
    3642:	fd842783          	lw	a5,-40(s0)
    3646:	0785                	addi	a5,a5,1
    3648:	00078783          	lb	a5,0(a5)
    364c:	853e                	mv	a0,a5
    364e:	172070ef          	jal	ra,a7c0 <__floatsisf>
    3652:	872a                	mv	a4,a0
    3654:	001017b7          	lui	a5,0x101
    3658:	f007a583          	lw	a1,-256(a5) # 100f00 <__init_array_end+0xf00>
    365c:	853a                	mv	a0,a4
    365e:	0d7060ef          	jal	ra,9f34 <__mulsf3>
    3662:	87aa                	mv	a5,a0
    3664:	873e                	mv	a4,a5
    3666:	fd442783          	lw	a5,-44(s0)
    366a:	00478493          	addi	s1,a5,4
    366e:	001017b7          	lui	a5,0x101
    3672:	f087a583          	lw	a1,-248(a5) # 100f08 <__init_array_end+0xf08>
    3676:	853a                	mv	a0,a4
    3678:	420060ef          	jal	ra,9a98 <__divsf3>
    367c:	87aa                	mv	a5,a0
    367e:	c09c                	sw	a5,0(s1)
    3680:	fd842783          	lw	a5,-40(s0)
    3684:	0789                	addi	a5,a5,2
    3686:	00078783          	lb	a5,0(a5)
    368a:	853e                	mv	a0,a5
    368c:	134070ef          	jal	ra,a7c0 <__floatsisf>
    3690:	872a                	mv	a4,a0
    3692:	001017b7          	lui	a5,0x101
    3696:	f007a583          	lw	a1,-256(a5) # 100f00 <__init_array_end+0xf00>
    369a:	853a                	mv	a0,a4
    369c:	099060ef          	jal	ra,9f34 <__mulsf3>
    36a0:	87aa                	mv	a5,a0
    36a2:	873e                	mv	a4,a5
    36a4:	fd442783          	lw	a5,-44(s0)
    36a8:	00878493          	addi	s1,a5,8
    36ac:	001017b7          	lui	a5,0x101
    36b0:	f087a583          	lw	a1,-248(a5) # 100f08 <__init_array_end+0xf08>
    36b4:	853a                	mv	a0,a4
    36b6:	3e2060ef          	jal	ra,9a98 <__divsf3>
    36ba:	87aa                	mv	a5,a0
    36bc:	c09c                	sw	a5,0(s1)
    36be:	a865                	j	3776 <adxl362_read_8msb+0x30a>
    36c0:	fd842783          	lw	a5,-40(s0)
    36c4:	00078783          	lb	a5,0(a5)
    36c8:	853e                	mv	a0,a5
    36ca:	0f6070ef          	jal	ra,a7c0 <__floatsisf>
    36ce:	872a                	mv	a4,a0
    36d0:	001017b7          	lui	a5,0x101
    36d4:	f007a583          	lw	a1,-256(a5) # 100f00 <__init_array_end+0xf00>
    36d8:	853a                	mv	a0,a4
    36da:	05b060ef          	jal	ra,9f34 <__mulsf3>
    36de:	87aa                	mv	a5,a0
    36e0:	873e                	mv	a4,a5
    36e2:	001017b7          	lui	a5,0x101
    36e6:	f0c7a583          	lw	a1,-244(a5) # 100f0c <__init_array_end+0xf0c>
    36ea:	853a                	mv	a0,a4
    36ec:	3ac060ef          	jal	ra,9a98 <__divsf3>
    36f0:	87aa                	mv	a5,a0
    36f2:	873e                	mv	a4,a5
    36f4:	fd442783          	lw	a5,-44(s0)
    36f8:	c398                	sw	a4,0(a5)
    36fa:	fd842783          	lw	a5,-40(s0)
    36fe:	0785                	addi	a5,a5,1
    3700:	00078783          	lb	a5,0(a5)
    3704:	853e                	mv	a0,a5
    3706:	0ba070ef          	jal	ra,a7c0 <__floatsisf>
    370a:	872a                	mv	a4,a0
    370c:	001017b7          	lui	a5,0x101
    3710:	f007a583          	lw	a1,-256(a5) # 100f00 <__init_array_end+0xf00>
    3714:	853a                	mv	a0,a4
    3716:	01f060ef          	jal	ra,9f34 <__mulsf3>
    371a:	87aa                	mv	a5,a0
    371c:	873e                	mv	a4,a5
    371e:	fd442783          	lw	a5,-44(s0)
    3722:	00478493          	addi	s1,a5,4
    3726:	001017b7          	lui	a5,0x101
    372a:	f0c7a583          	lw	a1,-244(a5) # 100f0c <__init_array_end+0xf0c>
    372e:	853a                	mv	a0,a4
    3730:	368060ef          	jal	ra,9a98 <__divsf3>
    3734:	87aa                	mv	a5,a0
    3736:	c09c                	sw	a5,0(s1)
    3738:	fd842783          	lw	a5,-40(s0)
    373c:	0789                	addi	a5,a5,2
    373e:	00078783          	lb	a5,0(a5)
    3742:	853e                	mv	a0,a5
    3744:	07c070ef          	jal	ra,a7c0 <__floatsisf>
    3748:	872a                	mv	a4,a0
    374a:	001017b7          	lui	a5,0x101
    374e:	f007a583          	lw	a1,-256(a5) # 100f00 <__init_array_end+0xf00>
    3752:	853a                	mv	a0,a4
    3754:	7e0060ef          	jal	ra,9f34 <__mulsf3>
    3758:	87aa                	mv	a5,a0
    375a:	873e                	mv	a4,a5
    375c:	fd442783          	lw	a5,-44(s0)
    3760:	00878493          	addi	s1,a5,8
    3764:	001017b7          	lui	a5,0x101
    3768:	f0c7a583          	lw	a1,-244(a5) # 100f0c <__init_array_end+0xf0c>
    376c:	853a                	mv	a0,a4
    376e:	32a060ef          	jal	ra,9a98 <__divsf3>
    3772:	87aa                	mv	a5,a0
    3774:	c09c                	sw	a5,0(s1)
    3776:	4781                	li	a5,0
    3778:	853e                	mv	a0,a5
    377a:	50b2                	lw	ra,44(sp)
    377c:	5422                	lw	s0,40(sp)
    377e:	5492                	lw	s1,36(sp)
    3780:	6145                	addi	sp,sp,48
    3782:	8082                	ret

00003784 <adxl362_read_temperature>:
    3784:	7179                	addi	sp,sp,-48
    3786:	d606                	sw	ra,44(sp)
    3788:	d422                	sw	s0,40(sp)
    378a:	1800                	addi	s0,sp,48
    378c:	fca42e23          	sw	a0,-36(s0)
    3790:	fcb42c23          	sw	a1,-40(s0)
    3794:	fcc42a23          	sw	a2,-44(s0)
    3798:	fdc42783          	lw	a5,-36(s0)
    379c:	e399                	bnez	a5,37a2 <adxl362_read_temperature+0x1e>
    379e:	4789                	li	a5,2
    37a0:	a849                	j	3832 <adxl362_read_temperature+0xae>
    37a2:	fdc42783          	lw	a5,-36(s0)
    37a6:	0207c703          	lbu	a4,32(a5)
    37aa:	4785                	li	a5,1
    37ac:	00f70463          	beq	a4,a5,37b4 <adxl362_read_temperature+0x30>
    37b0:	478d                	li	a5,3
    37b2:	a041                	j	3832 <adxl362_read_temperature+0xae>
    37b4:	fec40793          	addi	a5,s0,-20
    37b8:	4689                	li	a3,2
    37ba:	863e                	mv	a2,a5
    37bc:	45d1                	li	a1,20
    37be:	fdc42503          	lw	a0,-36(s0)
    37c2:	3831                	jal	2fde <a_adxl362_read>
    37c4:	87aa                	mv	a5,a0
    37c6:	fef407a3          	sb	a5,-17(s0)
    37ca:	fef44783          	lbu	a5,-17(s0)
    37ce:	cb99                	beqz	a5,37e4 <adxl362_read_temperature+0x60>
    37d0:	fdc42783          	lw	a5,-36(s0)
    37d4:	4fd8                	lw	a4,28(a5)
    37d6:	001017b7          	lui	a5,0x101
    37da:	a3078513          	addi	a0,a5,-1488 # 100a30 <__init_array_end+0xa30>
    37de:	9702                	jalr	a4
    37e0:	4785                	li	a5,1
    37e2:	a881                	j	3832 <adxl362_read_temperature+0xae>
    37e4:	fed44783          	lbu	a5,-19(s0)
    37e8:	07a2                	slli	a5,a5,0x8
    37ea:	01079713          	slli	a4,a5,0x10
    37ee:	8741                	srai	a4,a4,0x10
    37f0:	fec44783          	lbu	a5,-20(s0)
    37f4:	07c2                	slli	a5,a5,0x10
    37f6:	87c1                	srai	a5,a5,0x10
    37f8:	8fd9                	or	a5,a5,a4
    37fa:	01079713          	slli	a4,a5,0x10
    37fe:	8741                	srai	a4,a4,0x10
    3800:	fd842783          	lw	a5,-40(s0)
    3804:	00e79023          	sh	a4,0(a5)
    3808:	fd842783          	lw	a5,-40(s0)
    380c:	00079783          	lh	a5,0(a5)
    3810:	853e                	mv	a0,a5
    3812:	7af060ef          	jal	ra,a7c0 <__floatsisf>
    3816:	872a                	mv	a4,a0
    3818:	001017b7          	lui	a5,0x101
    381c:	f107a583          	lw	a1,-240(a5) # 100f10 <__init_array_end+0xf10>
    3820:	853a                	mv	a0,a4
    3822:	712060ef          	jal	ra,9f34 <__mulsf3>
    3826:	87aa                	mv	a5,a0
    3828:	873e                	mv	a4,a5
    382a:	fd442783          	lw	a5,-44(s0)
    382e:	c398                	sw	a4,0(a5)
    3830:	4781                	li	a5,0
    3832:	853e                	mv	a0,a5
    3834:	50b2                	lw	ra,44(sp)
    3836:	5422                	lw	s0,40(sp)
    3838:	6145                	addi	sp,sp,48
    383a:	8082                	ret

0000383c <adxl362_get_status>:
    383c:	7179                	addi	sp,sp,-48
    383e:	d606                	sw	ra,44(sp)
    3840:	d422                	sw	s0,40(sp)
    3842:	1800                	addi	s0,sp,48
    3844:	fca42e23          	sw	a0,-36(s0)
    3848:	fcb42c23          	sw	a1,-40(s0)
    384c:	fdc42783          	lw	a5,-36(s0)
    3850:	e399                	bnez	a5,3856 <adxl362_get_status+0x1a>
    3852:	4789                	li	a5,2
    3854:	a099                	j	389a <adxl362_get_status+0x5e>
    3856:	fdc42783          	lw	a5,-36(s0)
    385a:	0207c703          	lbu	a4,32(a5)
    385e:	4785                	li	a5,1
    3860:	00f70463          	beq	a4,a5,3868 <adxl362_get_status+0x2c>
    3864:	478d                	li	a5,3
    3866:	a815                	j	389a <adxl362_get_status+0x5e>
    3868:	4685                	li	a3,1
    386a:	fd842603          	lw	a2,-40(s0)
    386e:	45ad                	li	a1,11
    3870:	fdc42503          	lw	a0,-36(s0)
    3874:	f6aff0ef          	jal	ra,2fde <a_adxl362_read>
    3878:	87aa                	mv	a5,a0
    387a:	fef407a3          	sb	a5,-17(s0)
    387e:	fef44783          	lbu	a5,-17(s0)
    3882:	cb99                	beqz	a5,3898 <adxl362_get_status+0x5c>
    3884:	fdc42783          	lw	a5,-36(s0)
    3888:	4fd8                	lw	a4,28(a5)
    388a:	001017b7          	lui	a5,0x101
    388e:	a5478513          	addi	a0,a5,-1452 # 100a54 <__init_array_end+0xa54>
    3892:	9702                	jalr	a4
    3894:	4785                	li	a5,1
    3896:	a011                	j	389a <adxl362_get_status+0x5e>
    3898:	4781                	li	a5,0
    389a:	853e                	mv	a0,a5
    389c:	50b2                	lw	ra,44(sp)
    389e:	5422                	lw	s0,40(sp)
    38a0:	6145                	addi	sp,sp,48
    38a2:	8082                	ret

000038a4 <adxl362_get_fifo_counter>:
    38a4:	7179                	addi	sp,sp,-48
    38a6:	d606                	sw	ra,44(sp)
    38a8:	d422                	sw	s0,40(sp)
    38aa:	1800                	addi	s0,sp,48
    38ac:	fca42e23          	sw	a0,-36(s0)
    38b0:	fcb42c23          	sw	a1,-40(s0)
    38b4:	fdc42783          	lw	a5,-36(s0)
    38b8:	e399                	bnez	a5,38be <adxl362_get_fifo_counter+0x1a>
    38ba:	4789                	li	a5,2
    38bc:	a069                	j	3946 <adxl362_get_fifo_counter+0xa2>
    38be:	fdc42783          	lw	a5,-36(s0)
    38c2:	0207c703          	lbu	a4,32(a5)
    38c6:	4785                	li	a5,1
    38c8:	00f70463          	beq	a4,a5,38d0 <adxl362_get_fifo_counter+0x2c>
    38cc:	478d                	li	a5,3
    38ce:	a8a5                	j	3946 <adxl362_get_fifo_counter+0xa2>
    38d0:	fec40793          	addi	a5,s0,-20
    38d4:	4689                	li	a3,2
    38d6:	863e                	mv	a2,a5
    38d8:	45b1                	li	a1,12
    38da:	fdc42503          	lw	a0,-36(s0)
    38de:	f00ff0ef          	jal	ra,2fde <a_adxl362_read>
    38e2:	87aa                	mv	a5,a0
    38e4:	fef407a3          	sb	a5,-17(s0)
    38e8:	fef44783          	lbu	a5,-17(s0)
    38ec:	cb99                	beqz	a5,3902 <adxl362_get_fifo_counter+0x5e>
    38ee:	fdc42783          	lw	a5,-36(s0)
    38f2:	4fd8                	lw	a4,28(a5)
    38f4:	001017b7          	lui	a5,0x101
    38f8:	a7478513          	addi	a0,a5,-1420 # 100a74 <__init_array_end+0xa74>
    38fc:	9702                	jalr	a4
    38fe:	4785                	li	a5,1
    3900:	a099                	j	3946 <adxl362_get_fifo_counter+0xa2>
    3902:	fed44783          	lbu	a5,-19(s0)
    3906:	07c2                	slli	a5,a5,0x10
    3908:	83c1                	srli	a5,a5,0x10
    390a:	07a2                	slli	a5,a5,0x8
    390c:	01079713          	slli	a4,a5,0x10
    3910:	8341                	srli	a4,a4,0x10
    3912:	fec44783          	lbu	a5,-20(s0)
    3916:	07c2                	slli	a5,a5,0x10
    3918:	83c1                	srli	a5,a5,0x10
    391a:	8fd9                	or	a5,a5,a4
    391c:	01079713          	slli	a4,a5,0x10
    3920:	8341                	srli	a4,a4,0x10
    3922:	fd842783          	lw	a5,-40(s0)
    3926:	00e79023          	sh	a4,0(a5)
    392a:	fd842783          	lw	a5,-40(s0)
    392e:	0007d783          	lhu	a5,0(a5)
    3932:	2007f793          	andi	a5,a5,512
    3936:	01079713          	slli	a4,a5,0x10
    393a:	8341                	srli	a4,a4,0x10
    393c:	fd842783          	lw	a5,-40(s0)
    3940:	00e79023          	sh	a4,0(a5)
    3944:	4781                	li	a5,0
    3946:	853e                	mv	a0,a5
    3948:	50b2                	lw	ra,44(sp)
    394a:	5422                	lw	s0,40(sp)
    394c:	6145                	addi	sp,sp,48
    394e:	8082                	ret

00003950 <adxl362_soft_reset>:
    3950:	7179                	addi	sp,sp,-48
    3952:	d606                	sw	ra,44(sp)
    3954:	d422                	sw	s0,40(sp)
    3956:	1800                	addi	s0,sp,48
    3958:	fca42e23          	sw	a0,-36(s0)
    395c:	fdc42783          	lw	a5,-36(s0)
    3960:	e399                	bnez	a5,3966 <adxl362_soft_reset+0x16>
    3962:	4789                	li	a5,2
    3964:	a8a9                	j	39be <adxl362_soft_reset+0x6e>
    3966:	fdc42783          	lw	a5,-36(s0)
    396a:	0207c703          	lbu	a4,32(a5)
    396e:	4785                	li	a5,1
    3970:	00f70463          	beq	a4,a5,3978 <adxl362_soft_reset+0x28>
    3974:	478d                	li	a5,3
    3976:	a0a1                	j	39be <adxl362_soft_reset+0x6e>
    3978:	05200793          	li	a5,82
    397c:	fef40723          	sb	a5,-18(s0)
    3980:	fee40793          	addi	a5,s0,-18
    3984:	4685                	li	a3,1
    3986:	863e                	mv	a2,a5
    3988:	45fd                	li	a1,31
    398a:	fdc42503          	lw	a0,-36(s0)
    398e:	eb0ff0ef          	jal	ra,303e <a_adxl362_write>
    3992:	87aa                	mv	a5,a0
    3994:	fef407a3          	sb	a5,-17(s0)
    3998:	fef44783          	lbu	a5,-17(s0)
    399c:	cb99                	beqz	a5,39b2 <adxl362_soft_reset+0x62>
    399e:	fdc42783          	lw	a5,-36(s0)
    39a2:	4fd8                	lw	a4,28(a5)
    39a4:	001017b7          	lui	a5,0x101
    39a8:	a9878513          	addi	a0,a5,-1384 # 100a98 <__init_array_end+0xa98>
    39ac:	9702                	jalr	a4
    39ae:	4785                	li	a5,1
    39b0:	a039                	j	39be <adxl362_soft_reset+0x6e>
    39b2:	fdc42783          	lw	a5,-36(s0)
    39b6:	4f9c                	lw	a5,24(a5)
    39b8:	4509                	li	a0,2
    39ba:	9782                	jalr	a5
    39bc:	4781                	li	a5,0
    39be:	853e                	mv	a0,a5
    39c0:	50b2                	lw	ra,44(sp)
    39c2:	5422                	lw	s0,40(sp)
    39c4:	6145                	addi	sp,sp,48
    39c6:	8082                	ret

000039c8 <adxl362_set_fifo_temperature>:
    39c8:	7179                	addi	sp,sp,-48
    39ca:	d606                	sw	ra,44(sp)
    39cc:	d422                	sw	s0,40(sp)
    39ce:	1800                	addi	s0,sp,48
    39d0:	fca42e23          	sw	a0,-36(s0)
    39d4:	fcb42c23          	sw	a1,-40(s0)
    39d8:	fdc42783          	lw	a5,-36(s0)
    39dc:	e399                	bnez	a5,39e2 <adxl362_set_fifo_temperature+0x1a>
    39de:	4789                	li	a5,2
    39e0:	a065                	j	3a88 <adxl362_set_fifo_temperature+0xc0>
    39e2:	fdc42783          	lw	a5,-36(s0)
    39e6:	0207c703          	lbu	a4,32(a5)
    39ea:	4785                	li	a5,1
    39ec:	00f70463          	beq	a4,a5,39f4 <adxl362_set_fifo_temperature+0x2c>
    39f0:	478d                	li	a5,3
    39f2:	a859                	j	3a88 <adxl362_set_fifo_temperature+0xc0>
    39f4:	fee40793          	addi	a5,s0,-18
    39f8:	4685                	li	a3,1
    39fa:	863e                	mv	a2,a5
    39fc:	02800593          	li	a1,40
    3a00:	fdc42503          	lw	a0,-36(s0)
    3a04:	ddaff0ef          	jal	ra,2fde <a_adxl362_read>
    3a08:	87aa                	mv	a5,a0
    3a0a:	fef407a3          	sb	a5,-17(s0)
    3a0e:	fef44783          	lbu	a5,-17(s0)
    3a12:	cb99                	beqz	a5,3a28 <adxl362_set_fifo_temperature+0x60>
    3a14:	fdc42783          	lw	a5,-36(s0)
    3a18:	4fd8                	lw	a4,28(a5)
    3a1a:	001017b7          	lui	a5,0x101
    3a1e:	abc78513          	addi	a0,a5,-1348 # 100abc <__init_array_end+0xabc>
    3a22:	9702                	jalr	a4
    3a24:	4785                	li	a5,1
    3a26:	a08d                	j	3a88 <adxl362_set_fifo_temperature+0xc0>
    3a28:	fee44783          	lbu	a5,-18(s0)
    3a2c:	9bed                	andi	a5,a5,-5
    3a2e:	0ff7f793          	andi	a5,a5,255
    3a32:	fef40723          	sb	a5,-18(s0)
    3a36:	fd842783          	lw	a5,-40(s0)
    3a3a:	0ff7f793          	andi	a5,a5,255
    3a3e:	078a                	slli	a5,a5,0x2
    3a40:	0ff7f713          	andi	a4,a5,255
    3a44:	fee44783          	lbu	a5,-18(s0)
    3a48:	8fd9                	or	a5,a5,a4
    3a4a:	0ff7f793          	andi	a5,a5,255
    3a4e:	fef40723          	sb	a5,-18(s0)
    3a52:	fee40793          	addi	a5,s0,-18
    3a56:	4685                	li	a3,1
    3a58:	863e                	mv	a2,a5
    3a5a:	02800593          	li	a1,40
    3a5e:	fdc42503          	lw	a0,-36(s0)
    3a62:	ddcff0ef          	jal	ra,303e <a_adxl362_write>
    3a66:	87aa                	mv	a5,a0
    3a68:	fef407a3          	sb	a5,-17(s0)
    3a6c:	fef44783          	lbu	a5,-17(s0)
    3a70:	cb99                	beqz	a5,3a86 <adxl362_set_fifo_temperature+0xbe>
    3a72:	fdc42783          	lw	a5,-36(s0)
    3a76:	4fd8                	lw	a4,28(a5)
    3a78:	001017b7          	lui	a5,0x101
    3a7c:	ae078513          	addi	a0,a5,-1312 # 100ae0 <__init_array_end+0xae0>
    3a80:	9702                	jalr	a4
    3a82:	4785                	li	a5,1
    3a84:	a011                	j	3a88 <adxl362_set_fifo_temperature+0xc0>
    3a86:	4781                	li	a5,0
    3a88:	853e                	mv	a0,a5
    3a8a:	50b2                	lw	ra,44(sp)
    3a8c:	5422                	lw	s0,40(sp)
    3a8e:	6145                	addi	sp,sp,48
    3a90:	8082                	ret

00003a92 <adxl362_get_fifo_temperature>:
    3a92:	7179                	addi	sp,sp,-48
    3a94:	d606                	sw	ra,44(sp)
    3a96:	d422                	sw	s0,40(sp)
    3a98:	1800                	addi	s0,sp,48
    3a9a:	fca42e23          	sw	a0,-36(s0)
    3a9e:	fcb42c23          	sw	a1,-40(s0)
    3aa2:	fdc42783          	lw	a5,-36(s0)
    3aa6:	e399                	bnez	a5,3aac <adxl362_get_fifo_temperature+0x1a>
    3aa8:	4789                	li	a5,2
    3aaa:	a8b9                	j	3b08 <adxl362_get_fifo_temperature+0x76>
    3aac:	fdc42783          	lw	a5,-36(s0)
    3ab0:	0207c703          	lbu	a4,32(a5)
    3ab4:	4785                	li	a5,1
    3ab6:	00f70463          	beq	a4,a5,3abe <adxl362_get_fifo_temperature+0x2c>
    3aba:	478d                	li	a5,3
    3abc:	a0b1                	j	3b08 <adxl362_get_fifo_temperature+0x76>
    3abe:	fee40793          	addi	a5,s0,-18
    3ac2:	4685                	li	a3,1
    3ac4:	863e                	mv	a2,a5
    3ac6:	02800593          	li	a1,40
    3aca:	fdc42503          	lw	a0,-36(s0)
    3ace:	d10ff0ef          	jal	ra,2fde <a_adxl362_read>
    3ad2:	87aa                	mv	a5,a0
    3ad4:	fef407a3          	sb	a5,-17(s0)
    3ad8:	fef44783          	lbu	a5,-17(s0)
    3adc:	cb99                	beqz	a5,3af2 <adxl362_get_fifo_temperature+0x60>
    3ade:	fdc42783          	lw	a5,-36(s0)
    3ae2:	4fd8                	lw	a4,28(a5)
    3ae4:	001017b7          	lui	a5,0x101
    3ae8:	abc78513          	addi	a0,a5,-1348 # 100abc <__init_array_end+0xabc>
    3aec:	9702                	jalr	a4
    3aee:	4785                	li	a5,1
    3af0:	a821                	j	3b08 <adxl362_get_fifo_temperature+0x76>
    3af2:	fee44783          	lbu	a5,-18(s0)
    3af6:	8389                	srli	a5,a5,0x2
    3af8:	0ff7f793          	andi	a5,a5,255
    3afc:	8b85                	andi	a5,a5,1
    3afe:	873e                	mv	a4,a5
    3b00:	fd842783          	lw	a5,-40(s0)
    3b04:	c398                	sw	a4,0(a5)
    3b06:	4781                	li	a5,0
    3b08:	853e                	mv	a0,a5
    3b0a:	50b2                	lw	ra,44(sp)
    3b0c:	5422                	lw	s0,40(sp)
    3b0e:	6145                	addi	sp,sp,48
    3b10:	8082                	ret

00003b12 <adxl362_set_fifo_mode>:
    3b12:	7179                	addi	sp,sp,-48
    3b14:	d606                	sw	ra,44(sp)
    3b16:	d422                	sw	s0,40(sp)
    3b18:	1800                	addi	s0,sp,48
    3b1a:	fca42e23          	sw	a0,-36(s0)
    3b1e:	fcb42c23          	sw	a1,-40(s0)
    3b22:	fdc42783          	lw	a5,-36(s0)
    3b26:	e399                	bnez	a5,3b2c <adxl362_set_fifo_mode+0x1a>
    3b28:	4789                	li	a5,2
    3b2a:	a04d                	j	3bcc <adxl362_set_fifo_mode+0xba>
    3b2c:	fdc42783          	lw	a5,-36(s0)
    3b30:	0207c703          	lbu	a4,32(a5)
    3b34:	4785                	li	a5,1
    3b36:	00f70463          	beq	a4,a5,3b3e <adxl362_set_fifo_mode+0x2c>
    3b3a:	478d                	li	a5,3
    3b3c:	a841                	j	3bcc <adxl362_set_fifo_mode+0xba>
    3b3e:	fee40793          	addi	a5,s0,-18
    3b42:	4685                	li	a3,1
    3b44:	863e                	mv	a2,a5
    3b46:	02800593          	li	a1,40
    3b4a:	fdc42503          	lw	a0,-36(s0)
    3b4e:	c90ff0ef          	jal	ra,2fde <a_adxl362_read>
    3b52:	87aa                	mv	a5,a0
    3b54:	fef407a3          	sb	a5,-17(s0)
    3b58:	fef44783          	lbu	a5,-17(s0)
    3b5c:	cb99                	beqz	a5,3b72 <adxl362_set_fifo_mode+0x60>
    3b5e:	fdc42783          	lw	a5,-36(s0)
    3b62:	4fd8                	lw	a4,28(a5)
    3b64:	001017b7          	lui	a5,0x101
    3b68:	abc78513          	addi	a0,a5,-1348 # 100abc <__init_array_end+0xabc>
    3b6c:	9702                	jalr	a4
    3b6e:	4785                	li	a5,1
    3b70:	a8b1                	j	3bcc <adxl362_set_fifo_mode+0xba>
    3b72:	fee44783          	lbu	a5,-18(s0)
    3b76:	9bf1                	andi	a5,a5,-4
    3b78:	0ff7f793          	andi	a5,a5,255
    3b7c:	fef40723          	sb	a5,-18(s0)
    3b80:	fd842783          	lw	a5,-40(s0)
    3b84:	0ff7f713          	andi	a4,a5,255
    3b88:	fee44783          	lbu	a5,-18(s0)
    3b8c:	8fd9                	or	a5,a5,a4
    3b8e:	0ff7f793          	andi	a5,a5,255
    3b92:	fef40723          	sb	a5,-18(s0)
    3b96:	fee40793          	addi	a5,s0,-18
    3b9a:	4685                	li	a3,1
    3b9c:	863e                	mv	a2,a5
    3b9e:	02800593          	li	a1,40
    3ba2:	fdc42503          	lw	a0,-36(s0)
    3ba6:	c98ff0ef          	jal	ra,303e <a_adxl362_write>
    3baa:	87aa                	mv	a5,a0
    3bac:	fef407a3          	sb	a5,-17(s0)
    3bb0:	fef44783          	lbu	a5,-17(s0)
    3bb4:	cb99                	beqz	a5,3bca <adxl362_set_fifo_mode+0xb8>
    3bb6:	fdc42783          	lw	a5,-36(s0)
    3bba:	4fd8                	lw	a4,28(a5)
    3bbc:	001017b7          	lui	a5,0x101
    3bc0:	ae078513          	addi	a0,a5,-1312 # 100ae0 <__init_array_end+0xae0>
    3bc4:	9702                	jalr	a4
    3bc6:	4785                	li	a5,1
    3bc8:	a011                	j	3bcc <adxl362_set_fifo_mode+0xba>
    3bca:	4781                	li	a5,0
    3bcc:	853e                	mv	a0,a5
    3bce:	50b2                	lw	ra,44(sp)
    3bd0:	5422                	lw	s0,40(sp)
    3bd2:	6145                	addi	sp,sp,48
    3bd4:	8082                	ret

00003bd6 <adxl362_get_fifo_mode>:
    3bd6:	7179                	addi	sp,sp,-48
    3bd8:	d606                	sw	ra,44(sp)
    3bda:	d422                	sw	s0,40(sp)
    3bdc:	1800                	addi	s0,sp,48
    3bde:	fca42e23          	sw	a0,-36(s0)
    3be2:	fcb42c23          	sw	a1,-40(s0)
    3be6:	fdc42783          	lw	a5,-36(s0)
    3bea:	e399                	bnez	a5,3bf0 <adxl362_get_fifo_mode+0x1a>
    3bec:	4789                	li	a5,2
    3bee:	a8a1                	j	3c46 <adxl362_get_fifo_mode+0x70>
    3bf0:	fdc42783          	lw	a5,-36(s0)
    3bf4:	0207c703          	lbu	a4,32(a5)
    3bf8:	4785                	li	a5,1
    3bfa:	00f70463          	beq	a4,a5,3c02 <adxl362_get_fifo_mode+0x2c>
    3bfe:	478d                	li	a5,3
    3c00:	a099                	j	3c46 <adxl362_get_fifo_mode+0x70>
    3c02:	fee40793          	addi	a5,s0,-18
    3c06:	4685                	li	a3,1
    3c08:	863e                	mv	a2,a5
    3c0a:	02800593          	li	a1,40
    3c0e:	fdc42503          	lw	a0,-36(s0)
    3c12:	bccff0ef          	jal	ra,2fde <a_adxl362_read>
    3c16:	87aa                	mv	a5,a0
    3c18:	fef407a3          	sb	a5,-17(s0)
    3c1c:	fef44783          	lbu	a5,-17(s0)
    3c20:	cb99                	beqz	a5,3c36 <adxl362_get_fifo_mode+0x60>
    3c22:	fdc42783          	lw	a5,-36(s0)
    3c26:	4fd8                	lw	a4,28(a5)
    3c28:	001017b7          	lui	a5,0x101
    3c2c:	abc78513          	addi	a0,a5,-1348 # 100abc <__init_array_end+0xabc>
    3c30:	9702                	jalr	a4
    3c32:	4785                	li	a5,1
    3c34:	a809                	j	3c46 <adxl362_get_fifo_mode+0x70>
    3c36:	fee44783          	lbu	a5,-18(s0)
    3c3a:	8b8d                	andi	a5,a5,3
    3c3c:	873e                	mv	a4,a5
    3c3e:	fd842783          	lw	a5,-40(s0)
    3c42:	c398                	sw	a4,0(a5)
    3c44:	4781                	li	a5,0
    3c46:	853e                	mv	a0,a5
    3c48:	50b2                	lw	ra,44(sp)
    3c4a:	5422                	lw	s0,40(sp)
    3c4c:	6145                	addi	sp,sp,48
    3c4e:	8082                	ret

00003c50 <adxl362_set_fifo_sample>:
    3c50:	7179                	addi	sp,sp,-48
    3c52:	d606                	sw	ra,44(sp)
    3c54:	d422                	sw	s0,40(sp)
    3c56:	1800                	addi	s0,sp,48
    3c58:	fca42e23          	sw	a0,-36(s0)
    3c5c:	87ae                	mv	a5,a1
    3c5e:	fcf41d23          	sh	a5,-38(s0)
    3c62:	fdc42783          	lw	a5,-36(s0)
    3c66:	e399                	bnez	a5,3c6c <adxl362_set_fifo_sample+0x1c>
    3c68:	4789                	li	a5,2
    3c6a:	aa29                	j	3d84 <adxl362_set_fifo_sample+0x134>
    3c6c:	fdc42783          	lw	a5,-36(s0)
    3c70:	0207c703          	lbu	a4,32(a5)
    3c74:	4785                	li	a5,1
    3c76:	00f70463          	beq	a4,a5,3c7e <adxl362_set_fifo_sample+0x2e>
    3c7a:	478d                	li	a5,3
    3c7c:	a221                	j	3d84 <adxl362_set_fifo_sample+0x134>
    3c7e:	fda45703          	lhu	a4,-38(s0)
    3c82:	1ff00793          	li	a5,511
    3c86:	00e7fc63          	bgeu	a5,a4,3c9e <adxl362_set_fifo_sample+0x4e>
    3c8a:	fdc42783          	lw	a5,-36(s0)
    3c8e:	4fd8                	lw	a4,28(a5)
    3c90:	001017b7          	lui	a5,0x101
    3c94:	b0878513          	addi	a0,a5,-1272 # 100b08 <__init_array_end+0xb08>
    3c98:	9702                	jalr	a4
    3c9a:	4791                	li	a5,4
    3c9c:	a0e5                	j	3d84 <adxl362_set_fifo_sample+0x134>
    3c9e:	fee40793          	addi	a5,s0,-18
    3ca2:	4685                	li	a3,1
    3ca4:	863e                	mv	a2,a5
    3ca6:	02800593          	li	a1,40
    3caa:	fdc42503          	lw	a0,-36(s0)
    3cae:	b30ff0ef          	jal	ra,2fde <a_adxl362_read>
    3cb2:	87aa                	mv	a5,a0
    3cb4:	fef407a3          	sb	a5,-17(s0)
    3cb8:	fef44783          	lbu	a5,-17(s0)
    3cbc:	cb99                	beqz	a5,3cd2 <adxl362_set_fifo_sample+0x82>
    3cbe:	fdc42783          	lw	a5,-36(s0)
    3cc2:	4fd8                	lw	a4,28(a5)
    3cc4:	001017b7          	lui	a5,0x101
    3cc8:	abc78513          	addi	a0,a5,-1348 # 100abc <__init_array_end+0xabc>
    3ccc:	9702                	jalr	a4
    3cce:	4785                	li	a5,1
    3cd0:	a855                	j	3d84 <adxl362_set_fifo_sample+0x134>
    3cd2:	fee44783          	lbu	a5,-18(s0)
    3cd6:	9bdd                	andi	a5,a5,-9
    3cd8:	0ff7f793          	andi	a5,a5,255
    3cdc:	fef40723          	sb	a5,-18(s0)
    3ce0:	fda45783          	lhu	a5,-38(s0)
    3ce4:	83a1                	srli	a5,a5,0x8
    3ce6:	07c2                	slli	a5,a5,0x10
    3ce8:	83c1                	srli	a5,a5,0x10
    3cea:	078e                	slli	a5,a5,0x3
    3cec:	07e2                	slli	a5,a5,0x18
    3cee:	87e1                	srai	a5,a5,0x18
    3cf0:	8ba1                	andi	a5,a5,8
    3cf2:	01879713          	slli	a4,a5,0x18
    3cf6:	8761                	srai	a4,a4,0x18
    3cf8:	fee44783          	lbu	a5,-18(s0)
    3cfc:	07e2                	slli	a5,a5,0x18
    3cfe:	87e1                	srai	a5,a5,0x18
    3d00:	8fd9                	or	a5,a5,a4
    3d02:	07e2                	slli	a5,a5,0x18
    3d04:	87e1                	srai	a5,a5,0x18
    3d06:	0ff7f793          	andi	a5,a5,255
    3d0a:	fef40723          	sb	a5,-18(s0)
    3d0e:	fee40793          	addi	a5,s0,-18
    3d12:	4685                	li	a3,1
    3d14:	863e                	mv	a2,a5
    3d16:	02900593          	li	a1,41
    3d1a:	fdc42503          	lw	a0,-36(s0)
    3d1e:	b20ff0ef          	jal	ra,303e <a_adxl362_write>
    3d22:	87aa                	mv	a5,a0
    3d24:	fef407a3          	sb	a5,-17(s0)
    3d28:	fef44783          	lbu	a5,-17(s0)
    3d2c:	cb99                	beqz	a5,3d42 <adxl362_set_fifo_sample+0xf2>
